 real_time_test_sfun

 Timestamp is 6227d05f (Tue Mar  8 16:53:35 2022)

 Preferred load address is 0000000180000000

 Start         Length     Name                   Class
 0001:00000000 0002ea60H .text$mn                CODE
 0001:0002ea60 00000036H .text$mn$00             CODE
 0001:0002ea96 00000092H .text$x                 CODE
 0002:00000000 00000528H .idata$5                DATA
 0002:00000528 00000028H .00cfg                  DATA
 0002:00000550 00000008H .CRT$XCA                DATA
 0002:00000558 00000008H .CRT$XCZ                DATA
 0002:00000560 00000008H .CRT$XIA                DATA
 0002:00000568 00000008H .CRT$XIZ                DATA
 0002:00000570 00000008H .CRT$XPA                DATA
 0002:00000578 00000008H .CRT$XPZ                DATA
 0002:00000580 00000008H .CRT$XTA                DATA
 0002:00000588 00000008H .CRT$XTZ                DATA
 0002:00000590 00000000H .gehcont$y              DATA
 0002:00000590 00000000H .gfids$y                DATA
 0002:00000590 00000370H .rdata                  DATA
 0002:00000900 00000008H .rdata$CastGuardVftablesA DATA
 0002:00000908 00000008H .rdata$CastGuardVftablesC DATA
 0002:00000910 00000140H .rdata$voltmd           DATA
 0002:00000a50 00000278H .rdata$zzzdbg           DATA
 0002:00000cc8 00000008H .rtc$IAA                DATA
 0002:00000cd0 00000008H .rtc$IZZ                DATA
 0002:00000cd8 00000008H .rtc$TAA                DATA
 0002:00000ce0 00000008H .rtc$TZZ                DATA
 0002:00000ce8 00000c28H .xdata                  DATA
 0002:00001910 00000080H .edata                  DATA
 0002:00001990 0000017cH .idata$2                DATA
 0002:00001b0c 00000014H .idata$3                DATA
 0002:00001b20 00000528H .idata$4                DATA
 0002:00002048 00000e2cH .idata$6                DATA
 0003:00000000 000142d0H .data                   DATA
 0003:000142d0 00000c10H .bss                    DATA
 0004:00000000 00000edcH .pdata                  DATA

  Address         Publics by Value              Rva+Base               Lib:Object

 0000:00000000       __AbsoluteZero             0000000000000000     <absolute>
 0000:00000000       __guard_eh_cont_count      0000000000000000     <absolute>
 0000:00000000       __guard_fids_table         0000000000000000     <absolute>
 0000:00000000       __arm64x_extra_rfe_table   0000000000000000     <absolute>
 0000:00000000       __hybrid_code_map          0000000000000000     <absolute>
 0000:00000000       __hybrid_auxiliary_iat_copy 0000000000000000     <absolute>
 0000:00000000       ___safe_se_handler_table   0000000000000000     <absolute>
 0000:00000000       __arm64x_redirection_metadata 0000000000000000     <absolute>
 0000:00000000       __guard_fids_count         0000000000000000     <absolute>
 0000:00000000       __hybrid_code_map_count    0000000000000000     <absolute>
 0000:00000000       ___safe_se_handler_count   0000000000000000     <absolute>
 0000:00000000       __hybrid_auxiliary_iat     0000000000000000     <absolute>
 0000:00000000       __x64_code_ranges_to_entry_points_count 0000000000000000     <absolute>
 0000:00000000       __arm64x_extra_rfe_table_size 0000000000000000     <absolute>
 0000:00000000       __dynamic_value_reloc_table 0000000000000000     <absolute>
 0000:00000000       __x64_code_ranges_to_entry_points 0000000000000000     <absolute>
 0000:00000000       __arm64x_redirection_metadata_count 0000000000000000     <absolute>
 0000:00000000       __enclave_config           0000000000000000     <absolute>
 0000:00000000       __guard_longjmp_count      0000000000000000     <absolute>
 0000:00000000       __guard_iat_count          0000000000000000     <absolute>
 0000:00000000       __guard_eh_cont_table      0000000000000000     <absolute>
 0000:00000000       __guard_longjmp_table      0000000000000000     <absolute>
 0000:00000000       __guard_check_icall_a64n_fptr 0000000000000000     <absolute>
 0000:00000000       __arm64x_native_entrypoint 0000000000000000     <absolute>
 0000:00000000       __guard_iat_table          0000000000000000     <absolute>
 0000:00000100       __guard_flags              0000000000000100     <absolute>
 0000:00000000       __ImageBase                0000000180000000     <linker-defined>
 0001:00000000       real_time_test_initializer 0000000180001000 f   real_time_test_sfun.obj
 0001:00000010       real_time_test_terminator  0000000180001010 f   real_time_test_sfun.obj
 0001:00000020       load_real_time_test_optimization_info 0000000180001020 f   real_time_test_sfun.obj
 0001:000000d0       unload_real_time_test_optimization_info 00000001800010d0 f   real_time_test_sfun.obj
 0001:00000100       sf_real_time_test_method_dispatcher 0000000180001100 f   real_time_test_sfun.obj
 0001:00000150       sf_real_time_test_process_check_sum_call 0000000180001150 f   real_time_test_sfun.obj
 0001:00000640       sf_real_time_test_get_eml_resolved_functions_info 0000000180001640 f   real_time_test_sfun.obj
 0001:00000820       sf_real_time_test_third_party_uses_info 0000000180001820 f   real_time_test_sfun.obj
 0001:000009f0       sf_real_time_test_jit_fallback_info 00000001800019f0 f   real_time_test_sfun.obj
 0001:00000bc0       sf_real_time_test_get_post_codegen_info 0000000180001bc0 f   real_time_test_sfun.obj
 0001:00000da0       sf_real_time_test_updateBuildInfo_args_info 0000000180001da0 f   real_time_test_sfun.obj
 0001:00000f70       real_time_test_register_exported_symbols 0000000180001f70 f   real_time_test_sfun.obj
 0001:00000f80       sf_c2_real_time_test_get_eml_resolved_functions_info 0000000180001f80 f   c2_real_time_test.obj
 0001:00001000       sf_c2_real_time_test_get_check_sum 0000000180002000 f   c2_real_time_test.obj
 0001:000010d0       c2_real_time_test_method_dispatcher 00000001800020d0 f   c2_real_time_test.obj
 0001:00022900       sf_c2_real_time_test_third_party_uses_info 0000000180023900 f   c2_real_time_test.obj
 0001:00022a00       sf_c2_real_time_test_jit_fallback_info 0000000180023a00 f   c2_real_time_test.obj
 0001:00022b90       sf_c2_real_time_test_updateBuildInfo_args_info 0000000180023b90 f   c2_real_time_test.obj
 0001:00022f30       sf_c2_real_time_test_get_post_codegen_info 0000000180023f30 f   c2_real_time_test.obj
 0001:00023430       mexFunction                0000000180024430 f   real_time_test_sfun_registry.obj
 0001:00025c10       _ssSetInputPortDirectFeedThroughFcn 0000000180026c10 f   real_time_test_sfun_registry.obj
 0001:00025d80       _ssSetRWorkValueFcn        0000000180026d80 f   real_time_test_sfun_registry.obj
 0001:00025e00       _ssGetRWorkValueFcn        0000000180026e00 f   real_time_test_sfun_registry.obj
 0001:00025e70       _ssSetIWorkValueFcn        0000000180026e70 f   real_time_test_sfun_registry.obj
 0001:00025ef0       _ssGetIWorkValueFcn        0000000180026ef0 f   real_time_test_sfun_registry.obj
 0001:00025f60       _ssSetPWorkValueFcn        0000000180026f60 f   real_time_test_sfun_registry.obj
 0001:00025fe0       _ssGetPWorkValueFcn        0000000180026fe0 f   real_time_test_sfun_registry.obj
 0001:00026050       _ssGetInputPortSignalFcn   0000000180027050 f   real_time_test_sfun_registry.obj
 0001:000263e0       _ssGetInputPortBufferDstPortFcn 00000001800273e0 f   real_time_test_sfun_registry.obj
 0001:00026460       _ssGetInputPortSignalPtrsFcn 0000000180027460 f   real_time_test_sfun_registry.obj
 0001:000267f0       ssGetParameterTuningCompliance 00000001800277f0 f   real_time_test_sfun_registry.obj
 0001:00026860       ssGetDTypeIdFromMxArray    0000000180027860 f   real_time_test_sfun_registry.obj
 0001:00026980       ssWriteRTWMx2dMatParam     0000000180027980 f   real_time_test_sfun_registry.obj
 0001:00026a10       ssWriteRTWMxVectParam      0000000180027a10 f   real_time_test_sfun_registry.obj
 0001:00026a90       ssWriteRTWParameters       0000000180027a90 f   real_time_test_sfun_registry.obj
 0001:00027050       ssWriteRTWParamSettings    0000000180028050 f   real_time_test_sfun_registry.obj
 0001:00027740       ssWriteRTWStr              0000000180028740 f   real_time_test_sfun_registry.obj
 0001:000277a0       ssWriteRTWWorkVect         00000001800287a0 f   real_time_test_sfun_registry.obj
 0001:00027d00       ssWarning                  0000000180028d00 f   real_time_test_sfun_registry.obj
 0001:00027df0       ssWriteRTWNameValuePair    0000000180028df0 f   real_time_test_sfun_registry.obj
 0001:000282f0       _ssSetInputPortMatrixDimensions 00000001800292f0 f   real_time_test_sfun_registry.obj
 0001:00028410       _ssSetOutputPortMatrixDimensions 0000000180029410 f   real_time_test_sfun_registry.obj
 0001:00028530       _ssSetInputPortVectorDimension 0000000180029530 f   real_time_test_sfun_registry.obj
 0001:000285e0       _ssSetOutputPortVectorDimension 00000001800295e0 f   real_time_test_sfun_registry.obj
 0001:00028690       ssIsRunTimeParamTunable    0000000180029690 f   real_time_test_sfun_registry.obj
 0001:00028700       ssGetSFuncBlockHandle      0000000180029700 f   real_time_test_sfun_registry.obj
 0001:00028770       _ssGetCurrentInputPortWidth 0000000180029770 f   real_time_test_sfun_registry.obj
 0001:000288b0       _ssGetCurrentOutputPortWidth 00000001800298b0 f   real_time_test_sfun_registry.obj
 0001:000289f0       _ssGetCallSystemNumFcnCallDestinations 00000001800299f0 f   real_time_test_sfun_registry.obj
 0001:00028a60       ssGetIsZeroCrossControlDisabled 0000000180029a60 f   real_time_test_sfun_registry.obj
 0001:00028ad0       ssSetIsInputPortUsedForContZcSignal 0000000180029ad0 f   real_time_test_sfun_registry.obj
 0001:00028b40       ssSetZcSignalIsZcElementDisc 0000000180029b40 f   real_time_test_sfun_registry.obj
 0001:00028bf0       ssSetZcSignalName          0000000180029bf0 f   real_time_test_sfun_registry.obj
 0001:00028c60       ssSetZcSignalWidth         0000000180029c60 f   real_time_test_sfun_registry.obj
 0001:00028cd0       ssSetZcSignalZcEventType   0000000180029cd0 f   real_time_test_sfun_registry.obj
 0001:00028d40       ssSetZcSignalType          0000000180029d40 f   real_time_test_sfun_registry.obj
 0001:00028db0       ssSetZcSignalZcTol         0000000180029db0 f   real_time_test_sfun_registry.obj
 0001:00028e20       ssSetZcSignalNeedsEventNotification 0000000180029e20 f   real_time_test_sfun_registry.obj
 0001:00028e90       ssCreateAndAddZcSignalInfo 0000000180029e90 f   real_time_test_sfun_registry.obj
 0001:00028f00       ssCloneAndAddZcSignalInfo  0000000180029f00 f   real_time_test_sfun_registry.obj
 0001:00028f70       ssGetNumZcSignals          0000000180029f70 f   real_time_test_sfun_registry.obj
 0001:00028fe0       ssGetZcSignalVector        0000000180029fe0 f   real_time_test_sfun_registry.obj
 0001:00029050       ssGetZcSignalName          000000018002a050 f   real_time_test_sfun_registry.obj
 0001:000290c0       ssGetZcSignalWidth         000000018002a0c0 f   real_time_test_sfun_registry.obj
 0001:00029130       ssGetZcSignalZcEventType   000000018002a130 f   real_time_test_sfun_registry.obj
 0001:000291a0       ssGetZcSignalZcEvents      000000018002a1a0 f   real_time_test_sfun_registry.obj
 0001:00029210       ssGetZcSignalType          000000018002a210 f   real_time_test_sfun_registry.obj
 0001:00029280       ssGetZcSignalZcTol         000000018002a280 f   real_time_test_sfun_registry.obj
 0001:00029300       ssGetZcSignalNeedsEventNotification 000000018002a300 f   real_time_test_sfun_registry.obj
 0001:00029370       ssGetZcSignalIsZcElementDisc 000000018002a370 f   real_time_test_sfun_registry.obj
 0001:00029410       ssGetIsInputPortElementContinuous 000000018002a410 f   real_time_test_sfun_registry.obj
 0001:000294b0       _ssGetAbsTol               000000018002a4b0 f   real_time_test_sfun_registry.obj
 0001:00029520       _ssSetStateAbsTol          000000018002a520 f   real_time_test_sfun_registry.obj
 0001:00029600       _ssSetInputPortReusableFcn 000000018002a600 f   real_time_test_sfun_registry.obj
 0001:00029700       _ssSetOutputPortReusableFcn 000000018002a700 f   real_time_test_sfun_registry.obj
 0001:00029800       _ssSetSymbolicDimsSupport  000000018002a800 f   real_time_test_sfun_registry.obj
 0001:00029870       _ssRegisterSymbolicDimsExpr 000000018002a870 f   real_time_test_sfun_registry.obj
 0001:000298f0       _ssRegisterSymbolicDims    000000018002a8f0 f   real_time_test_sfun_registry.obj
 0001:00029990       _ssRegisterSymbolicDimsString 000000018002a990 f   real_time_test_sfun_registry.obj
 0001:00029a10       _ssRegisterSymbolicDimsIntValue 000000018002aa10 f   real_time_test_sfun_registry.obj
 0001:00029a80       _ssRegisterSymbolicDimsPlus 000000018002aa80 f   real_time_test_sfun_registry.obj
 0001:00029b00       _ssRegisterSymbolicDimsMinus 000000018002ab00 f   real_time_test_sfun_registry.obj
 0001:00029b80       _ssRegisterSymbolicDimsMultiply 000000018002ab80 f   real_time_test_sfun_registry.obj
 0001:00029c00       _ssRegisterSymbolicDimsDivide 000000018002ac00 f   real_time_test_sfun_registry.obj
 0001:00029c80       _ssGetNumSymbolicDims      000000018002ac80 f   real_time_test_sfun_registry.obj
 0001:00029cf0       _ssGetSymbolicDim          000000018002acf0 f   real_time_test_sfun_registry.obj
 0001:00029d70       _ssSetInputPortSymbolicDimsId 000000018002ad70 f   real_time_test_sfun_registry.obj
 0001:00029de0       _ssGetCompInputPortSymbolicDimsId 000000018002ade0 f   real_time_test_sfun_registry.obj
 0001:00029e50       _ssSetCompInputPortSymbolicDimsId 000000018002ae50 f   real_time_test_sfun_registry.obj
 0001:00029ec0       _ssSetOutputPortSymbolicDimsId 000000018002aec0 f   real_time_test_sfun_registry.obj
 0001:00029f30       _ssGetCompOutputPortSymbolicDimsId 000000018002af30 f   real_time_test_sfun_registry.obj
 0001:00029fa0       _ssSetCompOutputPortSymbolicDimsId 000000018002afa0 f   real_time_test_sfun_registry.obj
 0001:0002a010       _ssSetCompDWorkSymbolicDimsId 000000018002b010 f   real_time_test_sfun_registry.obj
 0001:0002a080       sf_process_check_sum_call  000000018002b080 f   real_time_test_sfun_registry.obj
 0001:0002a0d0       sf_process_get_third_party_uses_info_call 000000018002b0d0 f   real_time_test_sfun_registry.obj
 0001:0002a300       sf_process_get_jit_fallback_info_call 000000018002b300 f   real_time_test_sfun_registry.obj
 0001:0002a530       sf_process_get_post_codegen_info_call 000000018002b530 f   real_time_test_sfun_registry.obj
 0001:0002a760       sf_process_get_updateBuildInfo_args_info_call 000000018002b760 f   real_time_test_sfun_registry.obj
 0001:0002a990       sf_process_get_eml_resolved_functions_info_call 000000018002b990 f   real_time_test_sfun_registry.obj
 0001:0002abc0       sf_mex_unlock_call         000000018002bbc0 f   real_time_test_sfun_registry.obj
 0001:0002ade0       sf_machine_global_initializer_called 000000018002bde0 f   real_time_test_sfun_registry.obj
 0001:0002ae10       sf_machine_global_method_dispatcher 000000018002be10 f   real_time_test_sfun_registry.obj
 0001:0002ae70       sf_machine_global_terminator 000000018002be70 f   real_time_test_sfun_registry.obj
 0001:0002aea0       sf_register_machine_exported_symbols 000000018002bea0 f   real_time_test_sfun_registry.obj
 0001:0002aec0       callCustomFcn              000000018002bec0 f   real_time_test_sfun_registry.obj
 0001:0002aed0       sf_machine_global_initializer 000000018002bed0 f   real_time_test_sfun_registry.obj
 0001:0002af40       mdlGetSimState             000000018002bf40 f   real_time_test_sfun_registry.obj
 0001:0002af80       mdlSetSimState             000000018002bf80 f   real_time_test_sfun_registry.obj
 0001:0002b8d0       ProcessMexSfunctionEveryCall 000000018002c8d0 f   real_time_test_sfun_registry.obj
 0001:0002ca50       __local_stdio_printf_options 000000018002da50 f i real_time_test_sfun_registry.obj
 0001:0002ca60       _vsnprintf_l               000000018002da60 f i real_time_test_sfun_registry.obj
 0001:0002cae0       _vsprintf_l                000000018002dae0 f i real_time_test_sfun_registry.obj
 0001:0002cb30       sprintf                    000000018002db30 f i real_time_test_sfun_registry.obj
 0001:0002cb80       mexfilerequiredapiversion  000000018002db80 f   c_mexapi_version.obj
 0001:0002cbb0       getBitfieldFromFloat       000000018002dbb0 f   half_type.obj
 0001:0002cbe0       getFloatFromBitfield       000000018002dbe0 f   half_type.obj
 0001:0002cc10       getBitfieldFromHalf        000000018002dc10 f   half_type.obj
 0001:0002cc30       getHalfFromBitfield        000000018002dc30 f   half_type.obj
 0001:0002cc60       halfToFloat                000000018002dc60 f   half_type.obj
 0001:0002cd10       halfToDouble               000000018002dd10 f   half_type.obj
 0001:0002cd40       floatToHalf                000000018002dd40 f   half_type.obj
 0001:0002cfa0       doubleToHalf               000000018002dfa0 f   half_type.obj
 0001:0002d28d       ippfilter_uint8            000000018002e28d f   libmwippfilter:libmwippfilter.dll
 0001:0002d293       erode_binary_twod_tbb      000000018002e293 f   libmwmorphop_binary_tbb:libmwmorphop_binary_tbb.dll
 0001:0002d299       rgb2gray_tbb_uint8         000000018002e299 f   libmwrgb2gray_tbb:libmwrgb2gray_tbb.dll
 0001:0002d29f       getnumcores                000000018002e29f f   libmwgetnumcores:libmwgetnumcores.dll
 0001:0002d2a5       imfilter_uint8             000000018002e2a5 f   libmwimfilter:libmwimfilter.dll
 0001:0002d2ab       ippreconstruct_uint8       000000018002e2ab f   libmwippreconstruct:libmwippreconstruct.dll
 0001:0002d2b1       sf_load_rtw_optimization_info 000000018002e2b1 f   sf_runtime:sf_runtime.dll
 0001:0002d2b7       sf_mex_decode              000000018002e2b7 f   sf_runtime:sf_runtime.dll
 0001:0002d2bd       sf_init_ChartRunTimeInfo   000000018002e2bd f   sf_runtime:sf_runtime.dll
 0001:0002d2c3       sf_free_ChartRunTimeInfo   000000018002e2c3 f   sf_runtime:sf_runtime.dll
 0001:0002d2c9       sfrtGetEmlrtCtx            000000018002e2c9 f   sf_runtime:sf_runtime.dll
 0001:0002d2cf       sfrtGetCovrtInstance       000000018002e2cf f   sf_runtime:sf_runtime.dll
 0001:0002d2d5       sf_get_chart_instance_ptr  000000018002e2d5 f   sf_runtime:sf_runtime.dll
 0001:0002d2db       sim_mode_is_rtw_gen        000000018002e2db f   sf_runtime:sf_runtime.dll
 0001:0002d2e1       sim_mode_is_external       000000018002e2e1 f   sf_runtime:sf_runtime.dll
 0001:0002d2e7       sf_mex_listen_for_ctrl_c   000000018002e2e7 f   sf_runtime:sf_runtime.dll
 0001:0002d2ed       sf_clear_rtw_identifier    000000018002e2ed f   sf_runtime:sf_runtime.dll
 0001:0002d2f3       sf_get_time                000000018002e2f3 f   sf_runtime:sf_runtime.dll
 0001:0002d2f9       sfDoAnimationWrapper       000000018002e2f9 f   sf_runtime:sf_runtime.dll
 0001:0002d2ff       setDataBrowseFcn           000000018002e2ff f   sf_runtime:sf_runtime.dll
 0001:0002d305       setLegacyDebuggerFlag      000000018002e305 f   sf_runtime:sf_runtime.dll
 0001:0002d30b       setDebuggerFlag            000000018002e30b f   sf_runtime:sf_runtime.dll
 0001:0002d311       sf_warn_if_symbolic_dimension_param_changed 000000018002e311 f   sf_runtime:sf_runtime.dll
 0001:0002d317       sf_set_work_widths         000000018002e317 f   sf_runtime:sf_runtime.dll
 0001:0002d31d       sfListenerCacheSimStruct   000000018002e31d f   sf_runtime:sf_runtime.dll
 0001:0002d323       sfListenerLightTerminate   000000018002e323 f   sf_runtime:sf_runtime.dll
 0001:0002d329       sfListenerInitializeRuntimeVars 000000018002e329 f   sf_runtime:sf_runtime.dll
 0001:0002d32f       sf_mex_call                000000018002e32f f   sf_runtime:sf_runtime.dll
 0001:0002d335       sf_mex_error_message       000000018002e335 f   sf_runtime:sf_runtime.dll
 0001:0002d33b       sf_mex_create              000000018002e33b f   sf_runtime:sf_runtime.dll
 0001:0002d341       sf_mex_createcellmatrix    000000018002e341 f   sf_runtime:sf_runtime.dll
 0001:0002d347       sf_mex_setcell             000000018002e347 f   sf_runtime:sf_runtime.dll
 0001:0002d34d       sf_mex_getcell             000000018002e34d f   sf_runtime:sf_runtime.dll
 0001:0002d353       sf_mex_assign              000000018002e353 f   sf_runtime:sf_runtime.dll
 0001:0002d359       sf_mex_dup                 000000018002e359 f   sf_runtime:sf_runtime.dll
 0001:0002d35f       sf_mex_destroy             000000018002e35f f   sf_runtime:sf_runtime.dll
 0001:0002d365       sf_mex_import              000000018002e365 f   sf_runtime:sf_runtime.dll
 0001:0002d36b       ssGetInputPortSignal_wrapper 000000018002e36b f   sf_runtime:sf_runtime.dll
 0001:0002d371       ssGetOutputPortSignal_wrapper 000000018002e371 f   sf_runtime:sf_runtime.dll
 0001:0002d377       sf_data_saturate_error     000000018002e377 f   sf_runtime:sf_runtime.dll
 0001:0002d37d       sf_data_divide_by_zero_error 000000018002e37d f   sf_runtime:sf_runtime.dll
 0001:0002d383       sf_get_ChartInfoStruct_CodeGen 000000018002e383 f   sf_runtime:sf_runtime.dll
 0001:0002d389       sf_get_hasSeparateUpdateOutputs 000000018002e389 f   sf_runtime:sf_runtime.dll
 0001:0002d38f       callMdlMethodAndReportError 000000018002e38f f   sf_runtime:sf_runtime.dll
 0001:0002d395       call_sf_machine_global_method_dispatcher 000000018002e395 f   sf_runtime:sf_runtime.dll
 0001:0002d39b       getRuntimeInstanceInfoAsVoid 000000018002e39b f   sf_runtime:sf_runtime.dll
 0001:0002d3a1       sf_mex_error_direct_call   000000018002e3a1 f   sf_runtime:sf_runtime.dll
 0001:0002d3a7       sf_clear_error_manager_info 000000018002e3a7 f   sf_runtime:sf_runtime.dll
 0001:0002d3ad       mxIsChar_800               000000018002e3ad f   libmx:libmx.dll
 0001:0002d3b3       mxGetScalar_800            000000018002e3b3 f   libmx:libmx.dll
 0001:0002d3b9       mxGetPr_800                000000018002e3b9 f   libmx:libmx.dll
 0001:0002d3bf       mxDestroyArray_800         000000018002e3bf f   libmx:libmx.dll
 0001:0002d3c5       mxCreateDoubleMatrix_800   000000018002e3c5 f   libmx:libmx.dll
 0001:0002d3cb       mxGetString_800            000000018002e3cb f   libmx:libmx.dll
 0001:0002d3d1       mxDuplicateArray_800       000000018002e3d1 f   libmx:libmx.dll
 0001:0002d3d7       mxSetCell_800              000000018002e3d7 f   libmx:libmx.dll
 0001:0002d3dd       mxSetField_800             000000018002e3dd f   libmx:libmx.dll
 0001:0002d3e3       mxCreateString_800         000000018002e3e3 f   libmx:libmx.dll
 0001:0002d3e9       mxCreateCellMatrix_800     000000018002e3e9 f   libmx:libmx.dll
 0001:0002d3ef       mxCreateStructMatrix_800   000000018002e3ef f   libmx:libmx.dll
 0001:0002d3f5       mxGetInf_800               000000018002e3f5 f   libmx:libmx.dll
 0001:0002d3fb       mxCalloc_800               000000018002e3fb f   libmx:libmx.dll
 0001:0002d401       mxGetM_800                 000000018002e401 f   libmx:libmx.dll
 0001:0002d407       mxGetClassID_800           000000018002e407 f   libmx:libmx.dll
 0001:0002d40d       mxIsNumeric_800            000000018002e40d f   libmx:libmx.dll
 0001:0002d413       mxIsComplex_800            000000018002e413 f   libmx:libmx.dll
 0001:0002d419       mxGetN_800                 000000018002e419 f   libmx:libmx.dll
 0001:0002d41f       mxCreateDoubleScalar_800   000000018002e41f f   libmx:libmx.dll
 0001:0002d425       mexMakeArrayPersistent_800 000000018002e425 f   libmex:libmex.dll
 0001:0002d42b       mexErrMsgTxt_800           000000018002e42b f   libmex:libmex.dll
 0001:0002d431       mexWarnMsgTxt_800          000000018002e431 f   libmex:libmex.dll
 0001:0002d437       mexCallMATLAB_800          000000018002e437 f   libmex:libmex.dll
 0001:0002d43d       mexLock_800                000000018002e43d f   libmex:libmex.dll
 0001:0002d443       mexUnlock_800              000000018002e443 f   libmex:libmex.dll
 0001:0002d449       mexIsLocked_800            000000018002e449 f   libmex:libmex.dll
 0001:0002d44f       utMalloc                   000000018002e44f f   libut:libut.dll
 0001:0002d455       utFree                     000000018002e455 f   libut:libut.dll
 0001:0002d45b       muDoubleScalarCeil         000000018002e45b f   libmwmathutil:libmwmathutil.dll
 0001:0002d461       muDoubleScalarFloor        000000018002e461 f   libmwmathutil:libmwmathutil.dll
 0001:0002d467       muDoubleScalarRound        000000018002e467 f   libmwmathutil:libmwmathutil.dll
 0001:0002d46d       muDoubleScalarMin          000000018002e46d f   libmwmathutil:libmwmathutil.dll
 0001:0002d473       muDoubleScalarSqrt         000000018002e473 f   libmwmathutil:libmwmathutil.dll
 0001:0002d479       muDoubleScalarIsNaN        000000018002e479 f   libmwmathutil:libmwmathutil.dll
 0001:0002d47f       muDoubleScalarIsInf        000000018002e47f f   libmwmathutil:libmwmathutil.dll
 0001:0002d485       emlrtLicenseCheckR2012b    000000018002e485 f   libemlrt:libemlrt.dll
 0001:0002d48b       emlrtDynamicBoundsCheckR2012b 000000018002e48b f   libemlrt:libemlrt.dll
 0001:0002d491       emlrtSizeMulR2012b         000000018002e491 f   libemlrt:libemlrt.dll
 0001:0002d497       emlrtIntegerCheckR2012b    000000018002e497 f   libemlrt:libemlrt.dll
 0001:0002d49d       emlrtNonNegativeCheckR2012b 000000018002e49d f   libemlrt:libemlrt.dll
 0001:0002d4a3       emlrtForLoopVectorCheckR2021a 000000018002e4a3 f   libemlrt:libemlrt.dll
 0001:0002d4a9       emlrtMallocMex             000000018002e4a9 f   libemlrt:libemlrt.dll
 0001:0002d4af       emlrtCallocMex             000000018002e4af f   libemlrt:libemlrt.dll
 0001:0002d4b5       emlrtFreeMex               000000018002e4b5 f   libemlrt:libemlrt.dll
 0001:0002d4bb       emlrtHeapAllocationErrorR2012b 000000018002e4bb f   libemlrt:libemlrt.dll
 0001:0002d4c1       covrtCreateStateflowInstanceData 000000018002e4c1 f   libcovrt:libcovrt.dll
 0001:0002d4c7       covrtDeleteStateflowInstanceData 000000018002e4c7 f   libcovrt:libcovrt.dll
 0001:0002d4cd       covrtTransInitFcn          000000018002e4cd f   libcovrt:libcovrt.dll
 0001:0002d4d3       covrtStateInitFcn          000000018002e4d3 f   libcovrt:libcovrt.dll
 0001:0002d4d9       covrtChartInitFcn          000000018002e4d9 f   libcovrt:libcovrt.dll
 0001:0002d4df       covrtSigUpdateFcn          000000018002e4df f   libcovrt:libcovrt.dll
 0001:0002d4e5       covrtEmlInitFcn            000000018002e4e5 f   libcovrt:libcovrt.dll
 0001:0002d4eb       covrtEmlFcnInitFcn         000000018002e4eb f   libcovrt:libcovrt.dll
 0001:0002d4f1       covrtEmlForInitFcn         000000018002e4f1 f   libcovrt:libcovrt.dll
 0001:0002d4f7       covrtEmlFcnEval            000000018002e4f7 f   libcovrt:libcovrt.dll
 0001:0002d4fd       covrtEmlForEval            000000018002e4fd f   libcovrt:libcovrt.dll
 0001:0002d504       __raise_securityfailure    000000018002e504 f   MSVCRT:gs_report.obj
 0001:0002d538       __report_gsfailure         000000018002e538 f   MSVCRT:gs_report.obj
 0001:0002d60c       __report_rangecheckfailure 000000018002e60c f   MSVCRT:gs_report.obj
 0001:0002d620       __report_securityfailure   000000018002e620 f   MSVCRT:gs_report.obj
 0001:0002d6bc       __report_securityfailureEx 000000018002e6bc f   MSVCRT:gs_report.obj
 0001:0002d8b0       __GSHandlerCheck           000000018002e8b0 f   MSVCRT:gshandler.obj
 0001:0002d8d0       __GSHandlerCheckCommon     000000018002e8d0 f   MSVCRT:gshandler.obj
 0001:0002d940       __security_check_cookie    000000018002e940 f   MSVCRT:amdsecgs.obj
 0001:0002d970       __chkstk                   000000018002e970 f   MSVCRT:chkstk.obj
 0001:0002d970       _alloca_probe              000000018002e970 f   MSVCRT:chkstk.obj
 0001:0002dcfc       _CRT_INIT                  000000018002ecfc f   MSVCRT:dll_dllmain.obj
 0001:0002dd04       _DllMainCRTStartup         000000018002ed04 f   MSVCRT:dll_dllmain.obj
 0001:0002ddb0       __security_init_cookie     000000018002edb0 f   MSVCRT:gs_support.obj
 0001:0002de5c       DllMain                    000000018002ee5c f   MSVCRT:dll_dllmain_stub.obj
 0001:0002de80       ?__scrt_initialize_type_info@@YAXXZ 000000018002ee80 f   MSVCRT:tncleanup.obj
 0001:0002de90       ?__scrt_uninitialize_type_info@@YAXXZ 000000018002ee90 f   MSVCRT:tncleanup.obj
 0001:0002de9c       __local_stdio_scanf_options 000000018002ee9c f i MSVCRT:default_local_stdio_options.obj
 0001:0002dea4       __scrt_initialize_default_local_stdio_options 000000018002eea4 f   MSVCRT:default_local_stdio_options.obj
 0001:0002dec0       ?configure_argv@__scrt_narrow_argv_policy@@SAHXZ 000000018002eec0 f i MSVCRT:utility.obj
 0001:0002df20       ?initialize_environment@__scrt_narrow_environment_policy@@SAHXZ 000000018002ef20 f i MSVCRT:utility.obj
 0001:0002df58       NtCurrentTeb               000000018002ef58 f i MSVCRT:utility.obj
 0001:0002df64       __scrt_acquire_startup_lock 000000018002ef64 f   MSVCRT:utility.obj
 0001:0002dfa0       __scrt_dllmain_after_initialize_c 000000018002efa0 f   MSVCRT:utility.obj
 0001:0002dfd4       __scrt_dllmain_before_initialize_c 000000018002efd4 f   MSVCRT:utility.obj
 0001:0002dfec       __scrt_dllmain_crt_thread_attach 000000018002efec f   MSVCRT:utility.obj
 0001:0002e014       __scrt_dllmain_crt_thread_detach 000000018002f014 f   MSVCRT:utility.obj
 0001:0002e02c       __scrt_dllmain_exception_filter 000000018002f02c f   MSVCRT:utility.obj
 0001:0002e08c       __scrt_dllmain_uninitialize_c 000000018002f08c f   MSVCRT:utility.obj
 0001:0002e0bc       __scrt_dllmain_uninitialize_critical 000000018002f0bc f   MSVCRT:utility.obj
 0001:0002e0d0       __scrt_initialize_crt      000000018002f0d0 f   MSVCRT:utility.obj
 0001:0002e11c       __scrt_initialize_onexit_tables 000000018002f11c f   MSVCRT:utility.obj
 0001:0002e1a8       __scrt_is_nonwritable_in_current_image 000000018002f1a8 f   MSVCRT:utility.obj
 0001:0002e240       __scrt_release_startup_lock 000000018002f240 f   MSVCRT:utility.obj
 0001:0002e264       __scrt_uninitialize_crt    000000018002f264 f   MSVCRT:utility.obj
 0001:0002e290       _onexit                    000000018002f290 f   MSVCRT:utility.obj
 0001:0002e2cc       at_quick_exit              000000018002f2cc f   MSVCRT:utility.obj
 0001:0002e2ec       atexit                     000000018002f2ec f   MSVCRT:utility.obj
 0001:0002e304       __scrt_get_dyn_tls_init_callback 000000018002f304 f   MSVCRT:dyn_tls_init.obj
 0001:0002e30c       __crt_debugger_hook        000000018002f30c f   MSVCRT:utility_desktop.obj
 0001:0002e314       __scrt_fastfail            000000018002f314 f   MSVCRT:utility_desktop.obj
 0001:0002e460       __scrt_get_show_window_mode 000000018002f460 f   MSVCRT:utility_desktop.obj
 0001:0002e49c       __scrt_initialize_mta      000000018002f49c f   MSVCRT:utility_desktop.obj
 0001:0002e4a4       __scrt_initialize_winrt    000000018002f4a4 f   MSVCRT:utility_desktop.obj
 0001:0002e4a8       __scrt_is_managed_app      000000018002f4a8 f   MSVCRT:utility_desktop.obj
 0001:0002e4fc       __scrt_set_unhandled_exception_filter 000000018002f4fc f   MSVCRT:utility_desktop.obj
 0001:0002e50c       __scrt_exe_initialize_mta  000000018002f50c f   MSVCRT:utility_desktop.obj
 0001:0002e50c       __scrt_stub_for_initialize_mta 000000018002f50c f   MSVCRT:utility_desktop.obj
 0001:0002e510       __scrt_unhandled_exception_filter 000000018002f510 f   MSVCRT:utility_desktop.obj
 0001:0002e56c       _RTC_Initialize            000000018002f56c f   MSVCRT:initsect.obj
 0001:0002e5a8       _RTC_Terminate             000000018002f5a8 f   MSVCRT:initsect.obj
 0001:0002e5e4       _guard_check_icall_nop     000000018002f5e4 f i MSVCRT:guard_support.obj
 0001:0002e5e8       ReadNoFence64              000000018002f5e8 f i MSVCRT:guard_support.obj
 0001:0002e5ec       ReadPointerNoFence         000000018002f5ec f i MSVCRT:guard_support.obj
 0001:0002e5f0       __castguard_check_failure_debugbreak 000000018002f5f0 f i MSVCRT:guard_support.obj
 0001:0002e60c       __castguard_check_failure_fastfail 000000018002f60c f i MSVCRT:guard_support.obj
 0001:0002e630       __castguard_check_failure_nop 000000018002f630 f i MSVCRT:guard_support.obj
 0001:0002e634       __castguard_check_failure_os_handled 000000018002f634 f i MSVCRT:guard_support.obj
 0001:0002e694       __castguard_slow_path_check_debugbreak 000000018002f694 f i MSVCRT:guard_support.obj
 0001:0002e6c8       __castguard_slow_path_check_fastfail 000000018002f6c8 f i MSVCRT:guard_support.obj
 0001:0002e704       __castguard_slow_path_check_nop 000000018002f704 f i MSVCRT:guard_support.obj
 0001:0002e708       __castguard_slow_path_check_os_handled 000000018002f708 f i MSVCRT:guard_support.obj
 0001:0002e77c       _guard_icall_checks_enforced 000000018002f77c f i MSVCRT:guard_support.obj
 0001:0002e794       _guard_rf_checks_enforced  000000018002f794 f i MSVCRT:guard_support.obj
 0001:0002e798       __isa_available_init       000000018002f798 f   MSVCRT:cpu_disp.obj
 0001:0002e93c       _get_startup_argv_mode     000000018002f93c f   MSVCRT:argv_mode.obj
 0001:0002e944       __scrt_is_ucrt_dll_in_use  000000018002f944 f   MSVCRT:ucrt_detection.obj
 0001:0002e950       RtlCaptureContext          000000018002f950 f   kernel32:KERNEL32.dll
 0001:0002e956       RtlLookupFunctionEntry     000000018002f956 f   kernel32:KERNEL32.dll
 0001:0002e95c       RtlVirtualUnwind           000000018002f95c f   kernel32:KERNEL32.dll
 0001:0002e962       UnhandledExceptionFilter   000000018002f962 f   kernel32:KERNEL32.dll
 0001:0002e968       SetUnhandledExceptionFilter 000000018002f968 f   kernel32:KERNEL32.dll
 0001:0002e96e       GetCurrentProcess          000000018002f96e f   kernel32:KERNEL32.dll
 0001:0002e974       TerminateProcess           000000018002f974 f   kernel32:KERNEL32.dll
 0001:0002e97a       IsProcessorFeaturePresent  000000018002f97a f   kernel32:KERNEL32.dll
 0001:0002e980       QueryPerformanceCounter    000000018002f980 f   kernel32:KERNEL32.dll
 0001:0002e986       GetCurrentProcessId        000000018002f986 f   kernel32:KERNEL32.dll
 0001:0002e98c       GetCurrentThreadId         000000018002f98c f   kernel32:KERNEL32.dll
 0001:0002e992       GetSystemTimeAsFileTime    000000018002f992 f   kernel32:KERNEL32.dll
 0001:0002e998       DisableThreadLibraryCalls  000000018002f998 f   kernel32:KERNEL32.dll
 0001:0002e99e       InitializeSListHead        000000018002f99e f   kernel32:KERNEL32.dll
 0001:0002e9a4       IsDebuggerPresent          000000018002f9a4 f   kernel32:KERNEL32.dll
 0001:0002e9aa       GetStartupInfoW            000000018002f9aa f   kernel32:KERNEL32.dll
 0001:0002e9b0       GetModuleHandleW           000000018002f9b0 f   kernel32:KERNEL32.dll
 0001:0002e9b6       memcpy                     000000018002f9b6 f   vcruntime:VCRUNTIME140.dll
 0001:0002e9bc       memset                     000000018002f9bc f   vcruntime:VCRUNTIME140.dll
 0001:0002e9c2       __C_specific_handler       000000018002f9c2 f   vcruntime:VCRUNTIME140.dll
 0001:0002e9c8       __std_type_info_destroy_list 000000018002f9c8 f   vcruntime:VCRUNTIME140.dll
 0001:0002e9ce       __current_exception        000000018002f9ce f   vcruntime:VCRUNTIME140.dll
 0001:0002e9d4       __current_exception_context 000000018002f9d4 f   vcruntime:VCRUNTIME140.dll
 0001:0002e9da       strcmp                     000000018002f9da f   ucrt:api-ms-win-crt-string-l1-1-0.dll
 0001:0002e9e0       strcat                     000000018002f9e0 f   ucrt:api-ms-win-crt-string-l1-1-0.dll
 0001:0002e9e6       __stdio_common_vsprintf    000000018002f9e6 f   ucrt:api-ms-win-crt-stdio-l1-1-0.dll
 0001:0002e9ec       free                       000000018002f9ec f   ucrt:api-ms-win-crt-heap-l1-1-0.dll
 0001:0002e9f2       malloc                     000000018002f9f2 f   ucrt:api-ms-win-crt-heap-l1-1-0.dll
 0001:0002e9f8       strlen                     000000018002f9f8 f   ucrt:api-ms-win-crt-string-l1-1-0.dll
 0001:0002e9fe       _initterm                  000000018002f9fe f   ucrt:api-ms-win-crt-runtime-l1-1-0.dll
 0001:0002ea04       _initterm_e                000000018002fa04 f   ucrt:api-ms-win-crt-runtime-l1-1-0.dll
 0001:0002ea0a       _seh_filter_dll            000000018002fa0a f   ucrt:api-ms-win-crt-runtime-l1-1-0.dll
 0001:0002ea10       _configure_narrow_argv     000000018002fa10 f   ucrt:api-ms-win-crt-runtime-l1-1-0.dll
 0001:0002ea16       _initialize_narrow_environment 000000018002fa16 f   ucrt:api-ms-win-crt-runtime-l1-1-0.dll
 0001:0002ea1c       _initialize_onexit_table   000000018002fa1c f   ucrt:api-ms-win-crt-runtime-l1-1-0.dll
 0001:0002ea22       _register_onexit_function  000000018002fa22 f   ucrt:api-ms-win-crt-runtime-l1-1-0.dll
 0001:0002ea28       _execute_onexit_table      000000018002fa28 f   ucrt:api-ms-win-crt-runtime-l1-1-0.dll
 0001:0002ea2e       _crt_atexit                000000018002fa2e f   ucrt:api-ms-win-crt-runtime-l1-1-0.dll
 0001:0002ea34       _crt_at_quick_exit         000000018002fa34 f   ucrt:api-ms-win-crt-runtime-l1-1-0.dll
 0001:0002ea3a       _cexit                     000000018002fa3a f   ucrt:api-ms-win-crt-runtime-l1-1-0.dll
 0001:0002ea40       terminate                  000000018002fa40 f   ucrt:api-ms-win-crt-runtime-l1-1-0.dll
 0001:0002ea48       __vcrt_initialize          000000018002fa48 f   MSVCRT:ucrt_stubs.obj
 0001:0002ea48       __scrt_stub_for_acrt_initialize 000000018002fa48 f   MSVCRT:ucrt_stubs.obj
 0001:0002ea48       __acrt_initialize          000000018002fa48 f   MSVCRT:ucrt_stubs.obj
 0001:0002ea4c       __vcrt_thread_attach       000000018002fa4c f   MSVCRT:ucrt_stubs.obj
 0001:0002ea4c       __scrt_stub_for_acrt_thread_attach 000000018002fa4c f   MSVCRT:ucrt_stubs.obj
 0001:0002ea4c       __acrt_thread_attach       000000018002fa4c f   MSVCRT:ucrt_stubs.obj
 0001:0002ea50       __acrt_thread_detach       000000018002fa50 f   MSVCRT:ucrt_stubs.obj
 0001:0002ea50       __scrt_stub_for_acrt_thread_detach 000000018002fa50 f   MSVCRT:ucrt_stubs.obj
 0001:0002ea50       __vcrt_thread_detach       000000018002fa50 f   MSVCRT:ucrt_stubs.obj
 0001:0002ea54       __acrt_uninitialize        000000018002fa54 f   MSVCRT:ucrt_stubs.obj
 0001:0002ea54       __vcrt_uninitialize        000000018002fa54 f   MSVCRT:ucrt_stubs.obj
 0001:0002ea54       __scrt_stub_for_acrt_uninitialize 000000018002fa54 f   MSVCRT:ucrt_stubs.obj
 0001:0002ea58       __acrt_uninitialize_critical 000000018002fa58 f   MSVCRT:ucrt_stubs.obj
 0001:0002ea58       __scrt_stub_for_acrt_uninitialize_critical 000000018002fa58 f   MSVCRT:ucrt_stubs.obj
 0001:0002ea58       __vcrt_uninitialize_critical 000000018002fa58 f   MSVCRT:ucrt_stubs.obj
 0001:0002ea5c       _is_c_termination_complete 000000018002fa5c f   MSVCRT:ucrt_stubs.obj
 0001:0002ea5c       __scrt_stub_for_is_c_termination_complete 000000018002fa5c f   MSVCRT:ucrt_stubs.obj
 0001:0002ea70       _guard_dispatch_icall_nop  000000018002fa70 f   MSVCRT:guard_dispatch.obj
 0001:0002ea90       _guard_xfg_dispatch_icall_nop 000000018002fa90 f   MSVCRT:guard_xfg_dispatch.obj
 0002:00000000       __imp_GetSystemTimeAsFileTime 0000000180030000     kernel32:KERNEL32.dll
 0002:00000008       __imp_IsProcessorFeaturePresent 0000000180030008     kernel32:KERNEL32.dll
 0002:00000010       __imp_RtlCaptureContext    0000000180030010     kernel32:KERNEL32.dll
 0002:00000018       __imp_RtlLookupFunctionEntry 0000000180030018     kernel32:KERNEL32.dll
 0002:00000020       __imp_QueryPerformanceCounter 0000000180030020     kernel32:KERNEL32.dll
 0002:00000028       __imp_GetCurrentProcessId  0000000180030028     kernel32:KERNEL32.dll
 0002:00000030       __imp_GetCurrentThreadId   0000000180030030     kernel32:KERNEL32.dll
 0002:00000038       __imp_DisableThreadLibraryCalls 0000000180030038     kernel32:KERNEL32.dll
 0002:00000040       __imp_InitializeSListHead  0000000180030040     kernel32:KERNEL32.dll
 0002:00000048       __imp_IsDebuggerPresent    0000000180030048     kernel32:KERNEL32.dll
 0002:00000050       __imp_GetStartupInfoW      0000000180030050     kernel32:KERNEL32.dll
 0002:00000058       __imp_GetModuleHandleW     0000000180030058     kernel32:KERNEL32.dll
 0002:00000060       __imp_GetCurrentProcess    0000000180030060     kernel32:KERNEL32.dll
 0002:00000068       __imp_SetUnhandledExceptionFilter 0000000180030068     kernel32:KERNEL32.dll
 0002:00000070       __imp_UnhandledExceptionFilter 0000000180030070     kernel32:KERNEL32.dll
 0002:00000078       __imp_RtlVirtualUnwind     0000000180030078     kernel32:KERNEL32.dll
 0002:00000080       __imp_TerminateProcess     0000000180030080     kernel32:KERNEL32.dll
 0002:00000088       \177KERNEL32_NULL_THUNK_DATA 0000000180030088     kernel32:KERNEL32.dll
 0002:00000090       __imp_memcpy               0000000180030090     vcruntime:VCRUNTIME140.dll
 0002:00000098       __imp_memset               0000000180030098     vcruntime:VCRUNTIME140.dll
 0002:000000a0       __imp___C_specific_handler 00000001800300a0     vcruntime:VCRUNTIME140.dll
 0002:000000a8       __imp___std_type_info_destroy_list 00000001800300a8     vcruntime:VCRUNTIME140.dll
 0002:000000b0       __imp___current_exception  00000001800300b0     vcruntime:VCRUNTIME140.dll
 0002:000000b8       __imp___current_exception_context 00000001800300b8     vcruntime:VCRUNTIME140.dll
 0002:000000c0       \177VCRUNTIME140_NULL_THUNK_DATA 00000001800300c0     vcruntime:VCRUNTIME140.dll
 0002:000000c8       __imp_malloc               00000001800300c8     ucrt:api-ms-win-crt-heap-l1-1-0.dll
 0002:000000d0       __imp_free                 00000001800300d0     ucrt:api-ms-win-crt-heap-l1-1-0.dll
 0002:000000d8       \177api-ms-win-crt-heap-l1-1-0_NULL_THUNK_DATA 00000001800300d8     ucrt:api-ms-win-crt-heap-l1-1-0.dll
 0002:000000e0       __imp__seh_filter_dll      00000001800300e0     ucrt:api-ms-win-crt-runtime-l1-1-0.dll
 0002:000000e8       __imp__configure_narrow_argv 00000001800300e8     ucrt:api-ms-win-crt-runtime-l1-1-0.dll
 0002:000000f0       __imp__initialize_onexit_table 00000001800300f0     ucrt:api-ms-win-crt-runtime-l1-1-0.dll
 0002:000000f8       __imp__register_onexit_function 00000001800300f8     ucrt:api-ms-win-crt-runtime-l1-1-0.dll
 0002:00000100       __imp__execute_onexit_table 0000000180030100     ucrt:api-ms-win-crt-runtime-l1-1-0.dll
 0002:00000108       __imp__crt_atexit          0000000180030108     ucrt:api-ms-win-crt-runtime-l1-1-0.dll
 0002:00000110       __imp__initialize_narrow_environment 0000000180030110     ucrt:api-ms-win-crt-runtime-l1-1-0.dll
 0002:00000118       __imp__initterm_e          0000000180030118     ucrt:api-ms-win-crt-runtime-l1-1-0.dll
 0002:00000120       __imp__crt_at_quick_exit   0000000180030120     ucrt:api-ms-win-crt-runtime-l1-1-0.dll
 0002:00000128       __imp__cexit               0000000180030128     ucrt:api-ms-win-crt-runtime-l1-1-0.dll
 0002:00000130       __imp_terminate            0000000180030130     ucrt:api-ms-win-crt-runtime-l1-1-0.dll
 0002:00000138       __imp__initterm            0000000180030138     ucrt:api-ms-win-crt-runtime-l1-1-0.dll
 0002:00000140       \177api-ms-win-crt-runtime-l1-1-0_NULL_THUNK_DATA 0000000180030140     ucrt:api-ms-win-crt-runtime-l1-1-0.dll
 0002:00000148       __imp___stdio_common_vsprintf 0000000180030148     ucrt:api-ms-win-crt-stdio-l1-1-0.dll
 0002:00000150       \177api-ms-win-crt-stdio-l1-1-0_NULL_THUNK_DATA 0000000180030150     ucrt:api-ms-win-crt-stdio-l1-1-0.dll
 0002:00000158       __imp_strlen               0000000180030158     ucrt:api-ms-win-crt-string-l1-1-0.dll
 0002:00000160       __imp_strcat               0000000180030160     ucrt:api-ms-win-crt-string-l1-1-0.dll
 0002:00000168       __imp_strcmp               0000000180030168     ucrt:api-ms-win-crt-string-l1-1-0.dll
 0002:00000170       \177api-ms-win-crt-string-l1-1-0_NULL_THUNK_DATA 0000000180030170     ucrt:api-ms-win-crt-string-l1-1-0.dll
 0002:00000178       __imp_covrtCreateStateflowInstanceData 0000000180030178     libcovrt:libcovrt.dll
 0002:00000180       __imp_covrtEmlForEval      0000000180030180     libcovrt:libcovrt.dll
 0002:00000188       __imp_covrtEmlFcnEval      0000000180030188     libcovrt:libcovrt.dll
 0002:00000190       __imp_covrtEmlForInitFcn   0000000180030190     libcovrt:libcovrt.dll
 0002:00000198       __imp_covrtEmlFcnInitFcn   0000000180030198     libcovrt:libcovrt.dll
 0002:000001a0       __imp_covrtEmlInitFcn      00000001800301a0     libcovrt:libcovrt.dll
 0002:000001a8       __imp_covrtSigUpdateFcn    00000001800301a8     libcovrt:libcovrt.dll
 0002:000001b0       __imp_covrtChartInitFcn    00000001800301b0     libcovrt:libcovrt.dll
 0002:000001b8       __imp_covrtStateInitFcn    00000001800301b8     libcovrt:libcovrt.dll
 0002:000001c0       __imp_covrtTransInitFcn    00000001800301c0     libcovrt:libcovrt.dll
 0002:000001c8       __imp_covrtDeleteStateflowInstanceData 00000001800301c8     libcovrt:libcovrt.dll
 0002:000001d0       \177libcovrt_NULL_THUNK_DATA 00000001800301d0     libcovrt:libcovrt.dll
 0002:000001d8       __imp_emlrtDynamicBoundsCheckR2012b 00000001800301d8     libemlrt:libemlrt.dll
 0002:000001e0       __imp_emlrtHeapAllocationErrorR2012b 00000001800301e0     libemlrt:libemlrt.dll
 0002:000001e8       __imp_emlrtFreeMex         00000001800301e8     libemlrt:libemlrt.dll
 0002:000001f0       __imp_emlrtCallocMex       00000001800301f0     libemlrt:libemlrt.dll
 0002:000001f8       __imp_emlrtMallocMex       00000001800301f8     libemlrt:libemlrt.dll
 0002:00000200       __imp_emlrtForLoopVectorCheckR2021a 0000000180030200     libemlrt:libemlrt.dll
 0002:00000208       __imp_emlrtNonNegativeCheckR2012b 0000000180030208     libemlrt:libemlrt.dll
 0002:00000210       __imp_emlrtIntegerCheckR2012b 0000000180030210     libemlrt:libemlrt.dll
 0002:00000218       __imp_emlrtSizeMulR2012b   0000000180030218     libemlrt:libemlrt.dll
 0002:00000220       __imp_emlrtLicenseCheckR2012b 0000000180030220     libemlrt:libemlrt.dll
 0002:00000228       \177libemlrt_NULL_THUNK_DATA 0000000180030228     libemlrt:libemlrt.dll
 0002:00000230       __imp_mexIsLocked_800      0000000180030230     libmex:libmex.dll
 0002:00000238       __imp_mexUnlock_800        0000000180030238     libmex:libmex.dll
 0002:00000240       __imp_mexLock_800          0000000180030240     libmex:libmex.dll
 0002:00000248       __imp_mexCallMATLAB_800    0000000180030248     libmex:libmex.dll
 0002:00000250       __imp_mexWarnMsgTxt_800    0000000180030250     libmex:libmex.dll
 0002:00000258       __imp_mexErrMsgTxt_800     0000000180030258     libmex:libmex.dll
 0002:00000260       __imp_mexMakeArrayPersistent_800 0000000180030260     libmex:libmex.dll
 0002:00000268       \177libmex_NULL_THUNK_DATA 0000000180030268     libmex:libmex.dll
 0002:00000270       __imp_getnumcores          0000000180030270     libmwgetnumcores:libmwgetnumcores.dll
 0002:00000278       \177libmwgetnumcores_NULL_THUNK_DATA 0000000180030278     libmwgetnumcores:libmwgetnumcores.dll
 0002:00000280       __imp_imfilter_uint8       0000000180030280     libmwimfilter:libmwimfilter.dll
 0002:00000288       \177libmwimfilter_NULL_THUNK_DATA 0000000180030288     libmwimfilter:libmwimfilter.dll
 0002:00000290       __imp_ippfilter_uint8      0000000180030290     libmwippfilter:libmwippfilter.dll
 0002:00000298       \177libmwippfilter_NULL_THUNK_DATA 0000000180030298     libmwippfilter:libmwippfilter.dll
 0002:000002a0       __imp_ippreconstruct_uint8 00000001800302a0     libmwippreconstruct:libmwippreconstruct.dll
 0002:000002a8       \177libmwippreconstruct_NULL_THUNK_DATA 00000001800302a8     libmwippreconstruct:libmwippreconstruct.dll
 0002:000002b0       __imp_muDoubleScalarIsNaN  00000001800302b0     libmwmathutil:libmwmathutil.dll
 0002:000002b8       __imp_muDoubleScalarCeil   00000001800302b8     libmwmathutil:libmwmathutil.dll
 0002:000002c0       __imp_muDoubleScalarFloor  00000001800302c0     libmwmathutil:libmwmathutil.dll
 0002:000002c8       __imp_muDoubleScalarRound  00000001800302c8     libmwmathutil:libmwmathutil.dll
 0002:000002d0       __imp_muDoubleScalarMin    00000001800302d0     libmwmathutil:libmwmathutil.dll
 0002:000002d8       __imp_muDoubleScalarSqrt   00000001800302d8     libmwmathutil:libmwmathutil.dll
 0002:000002e0       __imp_muDoubleScalarIsInf  00000001800302e0     libmwmathutil:libmwmathutil.dll
 0002:000002e8       \177libmwmathutil_NULL_THUNK_DATA 00000001800302e8     libmwmathutil:libmwmathutil.dll
 0002:000002f0       __imp_erode_binary_twod_tbb 00000001800302f0     libmwmorphop_binary_tbb:libmwmorphop_binary_tbb.dll
 0002:000002f8       \177libmwmorphop_binary_tbb_NULL_THUNK_DATA 00000001800302f8     libmwmorphop_binary_tbb:libmwmorphop_binary_tbb.dll
 0002:00000300       __imp_rgb2gray_tbb_uint8   0000000180030300     libmwrgb2gray_tbb:libmwrgb2gray_tbb.dll
 0002:00000308       \177libmwrgb2gray_tbb_NULL_THUNK_DATA 0000000180030308     libmwrgb2gray_tbb:libmwrgb2gray_tbb.dll
 0002:00000310       __imp_mxCreateStructMatrix_800 0000000180030310     libmx:libmx.dll
 0002:00000318       __imp_mxCalloc_800         0000000180030318     libmx:libmx.dll
 0002:00000320       __imp_mxCreateString_800   0000000180030320     libmx:libmx.dll
 0002:00000328       __imp_mxSetField_800       0000000180030328     libmx:libmx.dll
 0002:00000330       __imp_mxSetCell_800        0000000180030330     libmx:libmx.dll
 0002:00000338       __imp_mxDuplicateArray_800 0000000180030338     libmx:libmx.dll
 0002:00000340       __imp_mxGetString_800      0000000180030340     libmx:libmx.dll
 0002:00000348       __imp_mxCreateDoubleMatrix_800 0000000180030348     libmx:libmx.dll
 0002:00000350       __imp_mxDestroyArray_800   0000000180030350     libmx:libmx.dll
 0002:00000358       __imp_mxGetPr_800          0000000180030358     libmx:libmx.dll
 0002:00000360       __imp_mxGetScalar_800      0000000180030360     libmx:libmx.dll
 0002:00000368       __imp_mxIsChar_800         0000000180030368     libmx:libmx.dll
 0002:00000370       __imp_mxGetM_800           0000000180030370     libmx:libmx.dll
 0002:00000378       __imp_mxCreateCellMatrix_800 0000000180030378     libmx:libmx.dll
 0002:00000380       __imp_mxGetClassID_800     0000000180030380     libmx:libmx.dll
 0002:00000388       __imp_mxIsNumeric_800      0000000180030388     libmx:libmx.dll
 0002:00000390       __imp_mxIsComplex_800      0000000180030390     libmx:libmx.dll
 0002:00000398       __imp_mxGetN_800           0000000180030398     libmx:libmx.dll
 0002:000003a0       __imp_mxCreateDoubleScalar_800 00000001800303a0     libmx:libmx.dll
 0002:000003a8       __imp_mxGetInf_800         00000001800303a8     libmx:libmx.dll
 0002:000003b0       \177libmx_NULL_THUNK_DATA  00000001800303b0     libmx:libmx.dll
 0002:000003b8       __imp_utMalloc             00000001800303b8     libut:libut.dll
 0002:000003c0       __imp_utFree               00000001800303c0     libut:libut.dll
 0002:000003c8       \177libut_NULL_THUNK_DATA  00000001800303c8     libut:libut.dll
 0002:000003d0       __imp_sf_mex_import        00000001800303d0     sf_runtime:sf_runtime.dll
 0002:000003d8       __imp_sf_mex_destroy       00000001800303d8     sf_runtime:sf_runtime.dll
 0002:000003e0       __imp_sf_mex_dup           00000001800303e0     sf_runtime:sf_runtime.dll
 0002:000003e8       __imp_sf_mex_assign        00000001800303e8     sf_runtime:sf_runtime.dll
 0002:000003f0       __imp_sf_mex_getcell       00000001800303f0     sf_runtime:sf_runtime.dll
 0002:000003f8       __imp_sf_mex_setcell       00000001800303f8     sf_runtime:sf_runtime.dll
 0002:00000400       __imp_sf_mex_createcellmatrix 0000000180030400     sf_runtime:sf_runtime.dll
 0002:00000408       __imp_sf_mex_create        0000000180030408     sf_runtime:sf_runtime.dll
 0002:00000410       __imp_sf_mex_error_message 0000000180030410     sf_runtime:sf_runtime.dll
 0002:00000418       __imp_sf_mex_call          0000000180030418     sf_runtime:sf_runtime.dll
 0002:00000420       __imp_sfListenerInitializeRuntimeVars 0000000180030420     sf_runtime:sf_runtime.dll
 0002:00000428       __imp_sfListenerLightTerminate 0000000180030428     sf_runtime:sf_runtime.dll
 0002:00000430       __imp_sfListenerCacheSimStruct 0000000180030430     sf_runtime:sf_runtime.dll
 0002:00000438       __imp_sf_set_work_widths   0000000180030438     sf_runtime:sf_runtime.dll
 0002:00000440       __imp_sf_warn_if_symbolic_dimension_param_changed 0000000180030440     sf_runtime:sf_runtime.dll
 0002:00000448       __imp_setDebuggerFlag      0000000180030448     sf_runtime:sf_runtime.dll
 0002:00000450       __imp_setLegacyDebuggerFlag 0000000180030450     sf_runtime:sf_runtime.dll
 0002:00000458       __imp_setDataBrowseFcn     0000000180030458     sf_runtime:sf_runtime.dll
 0002:00000460       __imp_sf_data_divide_by_zero_error 0000000180030460     sf_runtime:sf_runtime.dll
 0002:00000468       __imp_sf_get_time          0000000180030468     sf_runtime:sf_runtime.dll
 0002:00000470       __imp_sf_clear_rtw_identifier 0000000180030470     sf_runtime:sf_runtime.dll
 0002:00000478       __imp_sf_mex_listen_for_ctrl_c 0000000180030478     sf_runtime:sf_runtime.dll
 0002:00000480       __imp_sim_mode_is_external 0000000180030480     sf_runtime:sf_runtime.dll
 0002:00000488       __imp_sim_mode_is_rtw_gen  0000000180030488     sf_runtime:sf_runtime.dll
 0002:00000490       __imp_sf_get_chart_instance_ptr 0000000180030490     sf_runtime:sf_runtime.dll
 0002:00000498       __imp_sfrtGetCovrtInstance 0000000180030498     sf_runtime:sf_runtime.dll
 0002:000004a0       __imp_sfrtGetEmlrtCtx      00000001800304a0     sf_runtime:sf_runtime.dll
 0002:000004a8       __imp_sf_free_ChartRunTimeInfo 00000001800304a8     sf_runtime:sf_runtime.dll
 0002:000004b0       __imp_sf_init_ChartRunTimeInfo 00000001800304b0     sf_runtime:sf_runtime.dll
 0002:000004b8       __imp_sf_mex_decode        00000001800304b8     sf_runtime:sf_runtime.dll
 0002:000004c0       __imp_sf_load_rtw_optimization_info 00000001800304c0     sf_runtime:sf_runtime.dll
 0002:000004c8       __imp_sf_get_ChartInfoStruct_CodeGen 00000001800304c8     sf_runtime:sf_runtime.dll
 0002:000004d0       __imp_sf_get_hasSeparateUpdateOutputs 00000001800304d0     sf_runtime:sf_runtime.dll
 0002:000004d8       __imp_callMdlMethodAndReportError 00000001800304d8     sf_runtime:sf_runtime.dll
 0002:000004e0       __imp_call_sf_machine_global_method_dispatcher 00000001800304e0     sf_runtime:sf_runtime.dll
 0002:000004e8       __imp_getRuntimeInstanceInfoAsVoid 00000001800304e8     sf_runtime:sf_runtime.dll
 0002:000004f0       __imp_sf_mex_error_direct_call 00000001800304f0     sf_runtime:sf_runtime.dll
 0002:000004f8       __imp_sf_clear_error_manager_info 00000001800304f8     sf_runtime:sf_runtime.dll
 0002:00000500       __imp_ssGetOutputPortSignal_wrapper 0000000180030500     sf_runtime:sf_runtime.dll
 0002:00000508       __imp_sfDoAnimationWrapper 0000000180030508     sf_runtime:sf_runtime.dll
 0002:00000510       __imp_sf_data_saturate_error 0000000180030510     sf_runtime:sf_runtime.dll
 0002:00000518       __imp_ssGetInputPortSignal_wrapper 0000000180030518     sf_runtime:sf_runtime.dll
 0002:00000520       \177sf_runtime_NULL_THUNK_DATA 0000000180030520     sf_runtime:sf_runtime.dll
 0002:00000528       __guard_check_icall_fptr   0000000180030528     MSVCRT:guard_support.obj
 0002:00000530       __guard_xfg_check_icall_fptr 0000000180030530     MSVCRT:guard_support.obj
 0002:00000538       __guard_dispatch_icall_fptr 0000000180030538     MSVCRT:guard_support.obj
 0002:00000540       __guard_xfg_dispatch_icall_fptr 0000000180030540     MSVCRT:guard_support.obj
 0002:00000548       __guard_xfg_table_dispatch_icall_fptr 0000000180030548     MSVCRT:guard_support.obj
 0002:00000550       __xc_a                     0000000180030550     MSVCRT:initializers.obj
 0002:00000558       __xc_z                     0000000180030558     MSVCRT:initializers.obj
 0002:00000560       __xi_a                     0000000180030560     MSVCRT:initializers.obj
 0002:00000568       __xi_z                     0000000180030568     MSVCRT:initializers.obj
 0002:00000570       __xp_a                     0000000180030570     MSVCRT:initializers.obj
 0002:00000578       __xp_z                     0000000180030578     MSVCRT:initializers.obj
 0002:00000580       __xt_a                     0000000180030580     MSVCRT:initializers.obj
 0002:00000588       __xt_z                     0000000180030588     MSVCRT:initializers.obj
 0002:00000590       __real@418784f190000000    0000000180030590     real_time_test_sfun.obj
 0002:00000598       __real@41b493ef54000000    0000000180030598     real_time_test_sfun.obj
 0002:000005a0       __real@41d07f2c15000000    00000001800305a0     real_time_test_sfun.obj
 0002:000005a8       __real@41d87faffbc00000    00000001800305a8     real_time_test_sfun.obj
 0002:000005b0       __real@41df9fc581400000    00000001800305b0     real_time_test_sfun.obj
 0002:000005b8       __real@41e385a0c7200000    00000001800305b8     real_time_test_sfun.obj
 0002:000005c0       __real@41e3ba54e3c00000    00000001800305c0     real_time_test_sfun.obj
 0002:000005c8       __real@41e58ab79a600000    00000001800305c8     real_time_test_sfun.obj
 0002:000005d0       __real@41e777f608800000    00000001800305d0     real_time_test_sfun.obj
 0002:000005d8       __real@41ead8c7d7e00000    00000001800305d8     real_time_test_sfun.obj
 0002:000005e0       __real@41edfed151200000    00000001800305e0     real_time_test_sfun.obj
 0002:000005e8       __real@41ef2fadada00000    00000001800305e8     real_time_test_sfun.obj
 0002:00000640       __real@0000000000000000    0000000180030640     c2_real_time_test.obj
 0002:00000648       __real@3ff0000000000000    0000000180030648     c2_real_time_test.obj
 0002:00000650       __real@3ff20dd750429b6d    0000000180030650     c2_real_time_test.obj
 0002:00000658       __real@4000000000000000    0000000180030658     c2_real_time_test.obj
 0002:00000660       __real@4008000000000000    0000000180030660     c2_real_time_test.obj
 0002:00000668       __real@4010000000000000    0000000180030668     c2_real_time_test.obj
 0002:00000670       __real@4020000000000000    0000000180030670     c2_real_time_test.obj
 0002:00000678       __real@4031000000000000    0000000180030678     c2_real_time_test.obj
 0002:00000680       __real@4035000000000000    0000000180030680     c2_real_time_test.obj
 0002:00000688       __real@4040000000000000    0000000180030688     c2_real_time_test.obj
 0002:00000690       __real@4060000000000000    0000000180030690     c2_real_time_test.obj
 0002:00000698       __real@406fe00000000000    0000000180030698     c2_real_time_test.obj
 0002:000006a0       __real@4070000000000000    00000001800306a0     c2_real_time_test.obj
 0002:000006a8       __real@4070100000000000    00000001800306a8     c2_real_time_test.obj
 0002:000006b0       __real@4070200000000000    00000001800306b0     c2_real_time_test.obj
 0002:000006b8       __real@40f0000000000000    00000001800306b8     c2_real_time_test.obj
 0002:000006c0       __real@4191af6354000000    00000001800306c0     c2_real_time_test.obj
 0002:000006c8       __real@41c465531d000000    00000001800306c8     c2_real_time_test.obj
 0002:000006d0       __real@41dfffffffc00000    00000001800306d0     c2_real_time_test.obj
 0002:000006d8       __real@41e0000000000000    00000001800306d8     c2_real_time_test.obj
 0002:000006e0       __real@41e77cbaa4200000    00000001800306e0     c2_real_time_test.obj
 0002:000006e8       __real@41ecd4af7b400000    00000001800306e8     c2_real_time_test.obj
 0002:000006f0       __real@c000000000000000    00000001800306f0     c2_real_time_test.obj
 0002:000006f8       __real@c008000000000000    00000001800306f8     c2_real_time_test.obj
 0002:00000700       __real@c1e0000000000000    0000000180030700     c2_real_time_test.obj
 0002:00000710       __xmm@80000000000000008000000000000000 0000000180030710     c2_real_time_test.obj
 0002:00000720       DYNAMIC_DIMENSION_DEF      0000000180030720     real_time_test_sfun_registry.obj
 0002:00000738       __real@41602cbca0000000    0000000180030738     real_time_test_sfun_registry.obj
 0002:00000740       __real@bff0000000000000    0000000180030740     real_time_test_sfun_registry.obj
 0002:00000748       __real@77800000            0000000180030748     half_type.obj
 0002:00000760       _pRawDllMain               0000000180030760     MSVCRT:dll_dllmain.obj
 0002:00000760       _pDefaultRawDllMain        0000000180030760     MSVCRT:dll_dllmain.obj
 0002:00000770       __xmm@ffffffffffffffffffffffffffffffff 0000000180030770     MSVCRT:utility.obj
 0002:000007a0       _load_config_used          00000001800307a0     MSVCRT:loadcfg.obj
 0002:00000900       __CastGuardVftablesStart   0000000180030900     MSVCRT:guard_support.obj
 0002:00000908       __CastGuardVftablesEnd     0000000180030908     MSVCRT:guard_support.obj
 0002:00000910       __volatile_metadata        0000000180030910     <linker-defined>
 0002:00000cc8       __rtc_iaa                  0000000180030cc8     MSVCRT:initsect.obj
 0002:00000cd0       __rtc_izz                  0000000180030cd0     MSVCRT:initsect.obj
 0002:00000cd8       __rtc_taa                  0000000180030cd8     MSVCRT:initsect.obj
 0002:00000ce0       __rtc_tzz                  0000000180030ce0     MSVCRT:initsect.obj
 0002:00001990       __IMPORT_DESCRIPTOR_libmwippfilter 0000000180031990     libmwippfilter:libmwippfilter.dll
 0002:000019a4       __IMPORT_DESCRIPTOR_libmwmorphop_binary_tbb 00000001800319a4     libmwmorphop_binary_tbb:libmwmorphop_binary_tbb.dll
 0002:000019b8       __IMPORT_DESCRIPTOR_libmwrgb2gray_tbb 00000001800319b8     libmwrgb2gray_tbb:libmwrgb2gray_tbb.dll
 0002:000019cc       __IMPORT_DESCRIPTOR_libmwgetnumcores 00000001800319cc     libmwgetnumcores:libmwgetnumcores.dll
 0002:000019e0       __IMPORT_DESCRIPTOR_libmwimfilter 00000001800319e0     libmwimfilter:libmwimfilter.dll
 0002:000019f4       __IMPORT_DESCRIPTOR_libmwippreconstruct 00000001800319f4     libmwippreconstruct:libmwippreconstruct.dll
 0002:00001a08       __IMPORT_DESCRIPTOR_sf_runtime 0000000180031a08     sf_runtime:sf_runtime.dll
 0002:00001a1c       __IMPORT_DESCRIPTOR_libmx  0000000180031a1c     libmx:libmx.dll
 0002:00001a30       __IMPORT_DESCRIPTOR_libmex 0000000180031a30     libmex:libmex.dll
 0002:00001a44       __IMPORT_DESCRIPTOR_libut  0000000180031a44     libut:libut.dll
 0002:00001a58       __IMPORT_DESCRIPTOR_libmwmathutil 0000000180031a58     libmwmathutil:libmwmathutil.dll
 0002:00001a6c       __IMPORT_DESCRIPTOR_libemlrt 0000000180031a6c     libemlrt:libemlrt.dll
 0002:00001a80       __IMPORT_DESCRIPTOR_libcovrt 0000000180031a80     libcovrt:libcovrt.dll
 0002:00001a94       __IMPORT_DESCRIPTOR_KERNEL32 0000000180031a94     kernel32:KERNEL32.dll
 0002:00001aa8       __IMPORT_DESCRIPTOR_VCRUNTIME140 0000000180031aa8     vcruntime:VCRUNTIME140.dll
 0002:00001abc       __IMPORT_DESCRIPTOR_api-ms-win-crt-string-l1-1-0 0000000180031abc     ucrt:api-ms-win-crt-string-l1-1-0.dll
 0002:00001ad0       __IMPORT_DESCRIPTOR_api-ms-win-crt-stdio-l1-1-0 0000000180031ad0     ucrt:api-ms-win-crt-stdio-l1-1-0.dll
 0002:00001ae4       __IMPORT_DESCRIPTOR_api-ms-win-crt-heap-l1-1-0 0000000180031ae4     ucrt:api-ms-win-crt-heap-l1-1-0.dll
 0002:00001af8       __IMPORT_DESCRIPTOR_api-ms-win-crt-runtime-l1-1-0 0000000180031af8     ucrt:api-ms-win-crt-runtime-l1-1-0.dll
 0002:00001b0c       __NULL_IMPORT_DESCRIPTOR   0000000180031b0c     libmwippfilter:libmwippfilter.dll
 0003:00011d80       DYNAMIC_DIMENSION          0000000180044d80     real_time_test_sfun_registry.obj
 0003:00014280       __security_cookie_complement 0000000180047280     MSVCRT:gs_cookie.obj
 0003:00014288       __security_cookie          0000000180047288     MSVCRT:gs_cookie.obj
 0003:00014290       _fltused                   0000000180047290     MSVCRT:fltused.obj
 0003:000142a0       __scrt_native_dllmain_reason 00000001800472a0     MSVCRT:utility.obj
 0003:000142a8       __isa_available            00000001800472a8     MSVCRT:cpu_disp.obj
 0003:000142ac       __isa_enabled              00000001800472ac     MSVCRT:cpu_disp.obj
 0003:000142b0       __memcpy_nt_iters          00000001800472b0     MSVCRT:cpu_disp.obj
 0003:000142b8       __memset_nt_iters          00000001800472b8     MSVCRT:cpu_disp.obj
 0003:000142c0       __scrt_ucrt_dll_is_in_use  00000001800472c0     MSVCRT:ucrt_stubs.obj
 0003:00014e50       ?__type_info_root_node@@3U__type_info_node@@A 0000000180047e50     MSVCRT:tncleanup.obj
 0003:00014e60       ?_OptionsStorage@?1??__local_stdio_printf_options@@9@4_KA 0000000180047e60     MSVCRT:default_local_stdio_options.obj
 0003:00014e68       ?_OptionsStorage@?1??__local_stdio_scanf_options@@9@4_KA 0000000180047e68     MSVCRT:default_local_stdio_options.obj
 0003:00014e70       __scrt_current_native_startup_state 0000000180047e70     MSVCRT:utility.obj
 0003:00014e78       __scrt_native_startup_lock 0000000180047e78     MSVCRT:utility.obj
 0003:00014eb8       __scrt_debugger_hook_flag  0000000180047eb8     MSVCRT:utility_desktop.obj
 0003:00014ec0       __castguard_check_failure_os_handled_fptr 0000000180047ec0     MSVCRT:guard_support.obj
 0003:00014ec8       __favor                    0000000180047ec8     MSVCRT:cpu_disp.obj
 0003:00014ed0       ?_OptionsStorage@?1??__local_stdio_printf_options@@9@9 0000000180047ed0     <common>
 0003:00014ed8       __dyn_tls_init_callback    0000000180047ed8     <common>

 entry point at        0001:0002dd04

 Static symbols

 0000:fffb7000       _volmd                     0000000180000000     c2_real_time_test.obj
 0000:00000000       .debug$S                   0000000180000000     real_time_test_sfun.exp
 0000:fffb7000       _volmd                     0000000180000000     real_time_test_sfun.obj
 0000:fffb7000       _volmd                     0000000180000000     real_time_test_sfun_registry.obj
 0000:fffb7000       _volmd                     0000000180000000     MSVCRT:cpu_disp.obj
 0002:fffd0000       __guard_ehcont_?dllmain_dispatch@@YAHQEAUHINSTANCE__@@KQEAX@Z 0000000180000000     MSVCRT:dll_dllmain.obj
 0002:fffd0000       __guard_fids_?dllmain_dispatch@@YAHQEAUHINSTANCE__@@KQEAX@Z 0000000180000000     MSVCRT:dll_dllmain.obj
 0000:fffb7000       _volmd                     0000000180000000     MSVCRT:gs_report.obj
 0000:fffb7000       _volmd                     0000000180000000     MSVCRT:gs_report.obj
 0000:fffb7000       _volmd                     0000000180000000     MSVCRT:gs_report.obj
 0002:fffd0000       __guard_fids__             0000000180000000     MSVCRT:guard_support.obj
 0002:fffd0000       __guard_fids__             0000000180000000     MSVCRT:guard_support.obj
 0002:fffd0000       __guard_fids__guard_icall_checks_enforced 0000000180000000     MSVCRT:guard_support.obj
 0000:fffb7000       _volmd                     0000000180000000     MSVCRT:guard_support.obj
 0000:fffb7000       _volmd                     0000000180000000     MSVCRT:guard_support.obj
 0000:fffb7000       _volmd                     0000000180000000     MSVCRT:guard_support.obj
 0000:fffb7000       _volmd                     0000000180000000     MSVCRT:guard_support.obj
 0000:fffb7000       _volmd                     0000000180000000     MSVCRT:guard_support.obj
 0002:fffd0000       __guard_ehcont___scrt_is_nonwritable_in_current_image 0000000180000000     MSVCRT:utility.obj
 0000:fffb7000       _volmd                     0000000180000000     MSVCRT:utility.obj
 0000:fffb7000       _volmd                     0000000180000000     MSVCRT:utility.obj
 0000:fffb7000       _volmd                     0000000180000000     MSVCRT:utility.obj
 0002:fffd0000       __guard_fids___scrt_set_unhandled_exception_filter 0000000180000000     MSVCRT:utility_desktop.obj
 0000:fffb7000       _volmd                     0000000180000000     MSVCRT:utility_desktop.obj
 0000:00000000       .debug$S                   0000000180000000     vcruntime:VCRUNTIME140.dll
 0000:00000000       .debug$S                   0000000180000000     vcruntime:VCRUNTIME140.dll
 0000:00000000       .debug$S                   0000000180000000     vcruntime:VCRUNTIME140.dll
 0000:00000000       .debug$S                   0000000180000000     vcruntime:VCRUNTIME140.dll
 0000:00000000       .debug$S                   0000000180000000     vcruntime:VCRUNTIME140.dll
 0000:00000000       .debug$S                   0000000180000000     vcruntime:VCRUNTIME140.dll
 0000:00000000       .debug$S                   0000000180000000     ucrt:api-ms-win-crt-heap-l1-1-0.dll
 0000:00000000       .debug$S                   0000000180000000     ucrt:api-ms-win-crt-heap-l1-1-0.dll
 0000:00000000       .debug$S                   0000000180000000     ucrt:api-ms-win-crt-runtime-l1-1-0.dll
 0000:00000000       .debug$S                   0000000180000000     ucrt:api-ms-win-crt-runtime-l1-1-0.dll
 0000:00000000       .debug$S                   0000000180000000     ucrt:api-ms-win-crt-runtime-l1-1-0.dll
 0000:00000000       .debug$S                   0000000180000000     ucrt:api-ms-win-crt-runtime-l1-1-0.dll
 0000:00000000       .debug$S                   0000000180000000     ucrt:api-ms-win-crt-runtime-l1-1-0.dll
 0000:00000000       .debug$S                   0000000180000000     ucrt:api-ms-win-crt-runtime-l1-1-0.dll
 0000:00000000       .debug$S                   0000000180000000     ucrt:api-ms-win-crt-runtime-l1-1-0.dll
 0000:00000000       .debug$S                   0000000180000000     ucrt:api-ms-win-crt-runtime-l1-1-0.dll
 0000:00000000       .debug$S                   0000000180000000     ucrt:api-ms-win-crt-runtime-l1-1-0.dll
 0000:00000000       .debug$S                   0000000180000000     ucrt:api-ms-win-crt-runtime-l1-1-0.dll
 0000:00000000       .debug$S                   0000000180000000     ucrt:api-ms-win-crt-runtime-l1-1-0.dll
 0000:00000000       .debug$S                   0000000180000000     ucrt:api-ms-win-crt-runtime-l1-1-0.dll
 0000:00000000       .debug$S                   0000000180000000     ucrt:api-ms-win-crt-stdio-l1-1-0.dll
 0000:00000000       .debug$S                   0000000180000000     ucrt:api-ms-win-crt-string-l1-1-0.dll
 0000:00000000       .debug$S                   0000000180000000     ucrt:api-ms-win-crt-string-l1-1-0.dll
 0000:00000000       .debug$S                   0000000180000000     ucrt:api-ms-win-crt-string-l1-1-0.dll
 0000:00000000       .debug$S                   0000000180000000     kernel32:KERNEL32.dll
 0000:00000000       .debug$S                   0000000180000000     kernel32:KERNEL32.dll
 0000:00000000       .debug$S                   0000000180000000     kernel32:KERNEL32.dll
 0000:00000000       .debug$S                   0000000180000000     kernel32:KERNEL32.dll
 0000:00000000       .debug$S                   0000000180000000     kernel32:KERNEL32.dll
 0000:00000000       .debug$S                   0000000180000000     kernel32:KERNEL32.dll
 0000:00000000       .debug$S                   0000000180000000     kernel32:KERNEL32.dll
 0000:00000000       .debug$S                   0000000180000000     kernel32:KERNEL32.dll
 0000:00000000       .debug$S                   0000000180000000     kernel32:KERNEL32.dll
 0000:00000000       .debug$S                   0000000180000000     kernel32:KERNEL32.dll
 0000:00000000       .debug$S                   0000000180000000     kernel32:KERNEL32.dll
 0000:00000000       .debug$S                   0000000180000000     kernel32:KERNEL32.dll
 0000:00000000       .debug$S                   0000000180000000     kernel32:KERNEL32.dll
 0000:00000000       .debug$S                   0000000180000000     kernel32:KERNEL32.dll
 0000:00000000       .debug$S                   0000000180000000     kernel32:KERNEL32.dll
 0000:00000000       .debug$S                   0000000180000000     kernel32:KERNEL32.dll
 0000:00000000       .debug$S                   0000000180000000     kernel32:KERNEL32.dll
 0000:00000000       .debug$S                   0000000180000000     libcovrt:libcovrt.dll
 0000:00000000       .debug$S                   0000000180000000     libcovrt:libcovrt.dll
 0000:00000000       .debug$S                   0000000180000000     libcovrt:libcovrt.dll
 0000:00000000       .debug$S                   0000000180000000     libcovrt:libcovrt.dll
 0000:00000000       .debug$S                   0000000180000000     libcovrt:libcovrt.dll
 0000:00000000       .debug$S                   0000000180000000     libcovrt:libcovrt.dll
 0000:00000000       .debug$S                   0000000180000000     libcovrt:libcovrt.dll
 0000:00000000       .debug$S                   0000000180000000     libcovrt:libcovrt.dll
 0000:00000000       .debug$S                   0000000180000000     libcovrt:libcovrt.dll
 0000:00000000       .debug$S                   0000000180000000     libcovrt:libcovrt.dll
 0000:00000000       .debug$S                   0000000180000000     libcovrt:libcovrt.dll
 0000:00000000       .debug$S                   0000000180000000     libemlrt:libemlrt.dll
 0000:00000000       .debug$S                   0000000180000000     libemlrt:libemlrt.dll
 0000:00000000       .debug$S                   0000000180000000     libemlrt:libemlrt.dll
 0000:00000000       .debug$S                   0000000180000000     libemlrt:libemlrt.dll
 0000:00000000       .debug$S                   0000000180000000     libemlrt:libemlrt.dll
 0000:00000000       .debug$S                   0000000180000000     libemlrt:libemlrt.dll
 0000:00000000       .debug$S                   0000000180000000     libemlrt:libemlrt.dll
 0000:00000000       .debug$S                   0000000180000000     libemlrt:libemlrt.dll
 0000:00000000       .debug$S                   0000000180000000     libemlrt:libemlrt.dll
 0000:00000000       .debug$S                   0000000180000000     libemlrt:libemlrt.dll
 0000:00000000       .debug$S                   0000000180000000     libmex:libmex.dll
 0000:00000000       .debug$S                   0000000180000000     libmex:libmex.dll
 0000:00000000       .debug$S                   0000000180000000     libmex:libmex.dll
 0000:00000000       .debug$S                   0000000180000000     libmex:libmex.dll
 0000:00000000       .debug$S                   0000000180000000     libmex:libmex.dll
 0000:00000000       .debug$S                   0000000180000000     libmex:libmex.dll
 0000:00000000       .debug$S                   0000000180000000     libmex:libmex.dll
 0000:00000000       .debug$S                   0000000180000000     libmwgetnumcores:libmwgetnumcores.dll
 0000:00000000       .debug$S                   0000000180000000     libmwimfilter:libmwimfilter.dll
 0000:00000000       .debug$S                   0000000180000000     libmwippfilter:libmwippfilter.dll
 0000:00000000       .debug$S                   0000000180000000     libmwippreconstruct:libmwippreconstruct.dll
 0000:00000000       .debug$S                   0000000180000000     libmwmathutil:libmwmathutil.dll
 0000:00000000       .debug$S                   0000000180000000     libmwmathutil:libmwmathutil.dll
 0000:00000000       .debug$S                   0000000180000000     libmwmathutil:libmwmathutil.dll
 0000:00000000       .debug$S                   0000000180000000     libmwmathutil:libmwmathutil.dll
 0000:00000000       .debug$S                   0000000180000000     libmwmathutil:libmwmathutil.dll
 0000:00000000       .debug$S                   0000000180000000     libmwmathutil:libmwmathutil.dll
 0000:00000000       .debug$S                   0000000180000000     libmwmathutil:libmwmathutil.dll
 0000:00000000       .debug$S                   0000000180000000     libmwmorphop_binary_tbb:libmwmorphop_binary_tbb.dll
 0000:00000000       .debug$S                   0000000180000000     libmwrgb2gray_tbb:libmwrgb2gray_tbb.dll
 0000:00000000       .debug$S                   0000000180000000     libmx:libmx.dll
 0000:00000000       .debug$S                   0000000180000000     libmx:libmx.dll
 0000:00000000       .debug$S                   0000000180000000     libmx:libmx.dll
 0000:00000000       .debug$S                   0000000180000000     libmx:libmx.dll
 0000:00000000       .debug$S                   0000000180000000     libmx:libmx.dll
 0000:00000000       .debug$S                   0000000180000000     libmx:libmx.dll
 0000:00000000       .debug$S                   0000000180000000     libmx:libmx.dll
 0000:00000000       .debug$S                   0000000180000000     libmx:libmx.dll
 0000:00000000       .debug$S                   0000000180000000     libmx:libmx.dll
 0000:00000000       .debug$S                   0000000180000000     libmx:libmx.dll
 0000:00000000       .debug$S                   0000000180000000     libmx:libmx.dll
 0000:00000000       .debug$S                   0000000180000000     libmx:libmx.dll
 0000:00000000       .debug$S                   0000000180000000     libmx:libmx.dll
 0000:00000000       .debug$S                   0000000180000000     libmx:libmx.dll
 0000:00000000       .debug$S                   0000000180000000     libmx:libmx.dll
 0000:00000000       .debug$S                   0000000180000000     libmx:libmx.dll
 0000:00000000       .debug$S                   0000000180000000     libmx:libmx.dll
 0000:00000000       .debug$S                   0000000180000000     libmx:libmx.dll
 0000:00000000       .debug$S                   0000000180000000     libmx:libmx.dll
 0000:00000000       .debug$S                   0000000180000000     libmx:libmx.dll
 0000:00000000       .debug$S                   0000000180000000     libut:libut.dll
 0000:00000000       .debug$S                   0000000180000000     libut:libut.dll
 0000:00000000       .debug$S                   0000000180000000     sf_runtime:sf_runtime.dll
 0000:00000000       .debug$S                   0000000180000000     sf_runtime:sf_runtime.dll
 0000:00000000       .debug$S                   0000000180000000     sf_runtime:sf_runtime.dll
 0000:00000000       .debug$S                   0000000180000000     sf_runtime:sf_runtime.dll
 0000:00000000       .debug$S                   0000000180000000     sf_runtime:sf_runtime.dll
 0000:00000000       .debug$S                   0000000180000000     sf_runtime:sf_runtime.dll
 0000:00000000       .debug$S                   0000000180000000     sf_runtime:sf_runtime.dll
 0000:00000000       .debug$S                   0000000180000000     sf_runtime:sf_runtime.dll
 0000:00000000       .debug$S                   0000000180000000     sf_runtime:sf_runtime.dll
 0000:00000000       .debug$S                   0000000180000000     sf_runtime:sf_runtime.dll
 0000:00000000       .debug$S                   0000000180000000     sf_runtime:sf_runtime.dll
 0000:00000000       .debug$S                   0000000180000000     sf_runtime:sf_runtime.dll
 0000:00000000       .debug$S                   0000000180000000     sf_runtime:sf_runtime.dll
 0000:00000000       .debug$S                   0000000180000000     sf_runtime:sf_runtime.dll
 0000:00000000       .debug$S                   0000000180000000     sf_runtime:sf_runtime.dll
 0000:00000000       .debug$S                   0000000180000000     sf_runtime:sf_runtime.dll
 0000:00000000       .debug$S                   0000000180000000     sf_runtime:sf_runtime.dll
 0000:00000000       .debug$S                   0000000180000000     sf_runtime:sf_runtime.dll
 0000:00000000       .debug$S                   0000000180000000     sf_runtime:sf_runtime.dll
 0000:00000000       .debug$S                   0000000180000000     sf_runtime:sf_runtime.dll
 0000:00000000       .debug$S                   0000000180000000     sf_runtime:sf_runtime.dll
 0000:00000000       .debug$S                   0000000180000000     sf_runtime:sf_runtime.dll
 0000:00000000       .debug$S                   0000000180000000     sf_runtime:sf_runtime.dll
 0000:00000000       .debug$S                   0000000180000000     sf_runtime:sf_runtime.dll
 0000:00000000       .debug$S                   0000000180000000     sf_runtime:sf_runtime.dll
 0000:00000000       .debug$S                   0000000180000000     sf_runtime:sf_runtime.dll
 0000:00000000       .debug$S                   0000000180000000     sf_runtime:sf_runtime.dll
 0000:00000000       .debug$S                   0000000180000000     sf_runtime:sf_runtime.dll
 0000:00000000       .debug$S                   0000000180000000     sf_runtime:sf_runtime.dll
 0000:00000000       .debug$S                   0000000180000000     sf_runtime:sf_runtime.dll
 0000:00000000       .debug$S                   0000000180000000     sf_runtime:sf_runtime.dll
 0000:00000000       .debug$S                   0000000180000000     sf_runtime:sf_runtime.dll
 0000:00000000       .debug$S                   0000000180000000     sf_runtime:sf_runtime.dll
 0000:00000000       .debug$S                   0000000180000000     sf_runtime:sf_runtime.dll
 0000:00000000       .debug$S                   0000000180000000     sf_runtime:sf_runtime.dll
 0000:00000000       .debug$S                   0000000180000000     sf_runtime:sf_runtime.dll
 0000:00000000       .debug$S                   0000000180000000     sf_runtime:sf_runtime.dll
 0000:00000000       .debug$S                   0000000180000000     sf_runtime:sf_runtime.dll
 0000:00000000       .debug$S                   0000000180000000     sf_runtime:sf_runtime.dll
 0000:00000000       .debug$S                   0000000180000000     sf_runtime:sf_runtime.dll
 0000:00000000       .debug$S                   0000000180000000     sf_runtime:sf_runtime.dll
 0000:00000000       .debug$S                   0000000180000000     sf_runtime:sf_runtime.dll
 0000:fffb7010       _volmd                     0000000180000010     c2_real_time_test.obj
 0000:fffb7010       _volmd                     0000000180000010     real_time_test_sfun.obj
 0000:fffb7010       _volmd                     0000000180000010     real_time_test_sfun_registry.obj
 0000:fffb7020       _volmd                     0000000180000020     c2_real_time_test.obj
 0000:fffb7020       _volmd                     0000000180000020     real_time_test_sfun.obj
 0000:fffb7020       _volmd                     0000000180000020     real_time_test_sfun_registry.obj
 0000:fffb7030       _volmd                     0000000180000030     c2_real_time_test.obj
 0000:fffb7030       _volmd                     0000000180000030     real_time_test_sfun.obj
 0000:fffb7030       _volmd                     0000000180000030     real_time_test_sfun_registry.obj
 0000:fffb7040       _volmd                     0000000180000040     c2_real_time_test.obj
 0000:fffb7040       _volmd                     0000000180000040     real_time_test_sfun.obj
 0000:fffb7040       _volmd                     0000000180000040     real_time_test_sfun_registry.obj
 0000:fffb7050       _volmd                     0000000180000050     c2_real_time_test.obj
 0000:fffb7050       _volmd                     0000000180000050     real_time_test_sfun.obj
 0000:fffb7050       _volmd                     0000000180000050     real_time_test_sfun_registry.obj
 0000:fffb7060       _volmd                     0000000180000060     c2_real_time_test.obj
 0000:fffb7060       _volmd                     0000000180000060     real_time_test_sfun_registry.obj
 0000:fffb7070       _volmd                     0000000180000070     c2_real_time_test.obj
 0000:fffb7070       _volmd                     0000000180000070     real_time_test_sfun_registry.obj
 0000:fffb7080       _volmd                     0000000180000080     c2_real_time_test.obj
 0000:fffb7080       _volmd                     0000000180000080     real_time_test_sfun_registry.obj
 0000:fffb7090       _volmd                     0000000180000090     c2_real_time_test.obj
 0000:fffb7090       _volmd                     0000000180000090     real_time_test_sfun_registry.obj
 0000:fffb70a0       _volmd                     00000001800000a0     c2_real_time_test.obj
 0000:fffb70a0       _volmd                     00000001800000a0     real_time_test_sfun_registry.obj
 0000:fffb70b0       _volmd                     00000001800000b0     c2_real_time_test.obj
 0000:fffb70b0       _volmd                     00000001800000b0     real_time_test_sfun_registry.obj
 0000:fffb70c0       _volmd                     00000001800000c0     c2_real_time_test.obj
 0000:fffb70c0       _volmd                     00000001800000c0     real_time_test_sfun_registry.obj
 0000:fffb70d0       _volmd                     00000001800000d0     real_time_test_sfun_registry.obj
 0000:fffb70e0       _volmd                     00000001800000e0     real_time_test_sfun_registry.obj
 0000:fffb70f0       _volmd                     00000001800000f0     real_time_test_sfun_registry.obj
 0000:fffb7100       _volmd                     0000000180000100     real_time_test_sfun_registry.obj
 0001:00001150       initialize_c2_real_time_test 0000000180002150 f   c2_real_time_test.obj
 0001:000011f0       initialize_params_c2_real_time_test 00000001800021f0 f   c2_real_time_test.obj
 0001:00001200       enable_c2_real_time_test   0000000180002200 f   c2_real_time_test.obj
 0001:00001230       disable_c2_real_time_test  0000000180002230 f   c2_real_time_test.obj
 0001:00001260       c2_do_animation_call_c2_real_time_test 0000000180002260 f   c2_real_time_test.obj
 0001:000012a0       get_sim_state_c2_real_time_test 00000001800022a0 f   c2_real_time_test.obj
 0001:00001590       set_sim_state_c2_real_time_test 0000000180002590 f   c2_real_time_test.obj
 0001:00001780       sf_gateway_c2_real_time_test 0000000180002780 f   c2_real_time_test.obj
 0001:000038c0       mdl_start_c2_real_time_test 00000001800048c0 f   c2_real_time_test.obj
 0001:000038d0       mdl_terminate_c2_real_time_test 00000001800048d0 f   c2_real_time_test.obj
 0001:000038e0       mdl_setup_runtime_resources_c2_real_time_test 00000001800048e0 f   c2_real_time_test.obj
 0001:00003b90       mdl_cleanup_runtime_resources_c2_real_time_test 0000000180004b90 f   c2_real_time_test.obj
 0001:00003bd0       initSimStructsc2_real_time_test 0000000180004bd0 f   c2_real_time_test.obj
 0001:00003be0       c2_imgaussfilt             0000000180004be0 f   c2_real_time_test.obj
 0001:000040b0       c2_padImage                00000001800050b0 f   c2_real_time_test.obj
 0001:000041b0       c2_computeGlobalThreshold  00000001800051b0 f   c2_real_time_test.obj
 0001:000047f0       c2_otsuthresh              00000001800057f0 f   c2_real_time_test.obj
 0001:00005050       c2_regionprops             0000000180006050 f   c2_real_time_test.obj
 0001:00008d00       c2_bwconncomp              0000000180009d00 f   c2_real_time_test.obj
 0001:0000c5f0       c2_check_forloop_overflow_error 000000018000d5f0 f   c2_real_time_test.obj
 0001:0000c800       c2_sumColumnB              000000018000d800 f   c2_real_time_test.obj
 0001:0000cde0       c2_sumColumnB4             000000018000dde0 f   c2_real_time_test.obj
 0001:0000cf90       c2_b_sumColumnB            000000018000df90 f   c2_real_time_test.obj
 0001:0000d5c0       c2_useConstantDim          000000018000e5c0 f   c2_real_time_test.obj
 0001:0000d9e0       c2_assertValidSizeArg      000000018000e9e0 f   c2_real_time_test.obj
 0001:0000df30       c2_initializeStatsStruct   000000018000ef30 f   c2_real_time_test.obj
 0001:0000e6f0       c2_c_sumColumnB            000000018000f6f0 f   c2_real_time_test.obj
 0001:0000edc0       c2_b_sumColumnB4           000000018000fdc0 f   c2_real_time_test.obj
 0001:0000ef80       c2_d_sumColumnB            000000018000ff80 f   c2_real_time_test.obj
 0001:0000f6a0       c2_imerode                 00000001800106a0 f   c2_real_time_test.obj
 0001:0000f7a0       c2_bwboundaries            00000001800107a0 f   c2_real_time_test.obj
 0001:0000fbc0       c2_findObjectBoundaries    0000000180010bc0 f   c2_real_time_test.obj
 0001:0000ff60       c2_bwlabel                 0000000180010f60 f   c2_real_time_test.obj
 0001:00015560       c2_padarray                0000000180016560 f   c2_real_time_test.obj
 0001:000157d0       c2_BoundaryFinder_findBoundaries 00000001800167d0 f   c2_real_time_test.obj
 0001:00017c90       c2_findHoleBoundaries      0000000180018c90 f   c2_real_time_test.obj
 0001:000180f0       c2_imclearborder           00000001800190f0 f   c2_real_time_test.obj
 0001:00018950       c2_b_imerode               0000000180019950 f   c2_real_time_test.obj
 0001:00018a70       c2_imreconstruct           0000000180019a70 f   c2_real_time_test.obj
 0001:00018b60       c2_b_bwlabel               0000000180019b60 f   c2_real_time_test.obj
 0001:0001b9e0       c2_vertConcatenateCells    000000018001c9e0 f   c2_real_time_test.obj
 0001:0001cc00       c2_emlrt_marshallIn        000000018001dc00 f   c2_real_time_test.obj
 0001:0001cc70       c2_b_emlrt_marshallIn      000000018001dc70 f   c2_real_time_test.obj
 0001:0001cd50       c2_c_emlrt_marshallIn      000000018001dd50 f   c2_real_time_test.obj
 0001:0001cdc0       c2_d_emlrt_marshallIn      000000018001ddc0 f   c2_real_time_test.obj
 0001:0001ced0       c2_e_emlrt_marshallIn      000000018001ded0 f   c2_real_time_test.obj
 0001:0001cf40       c2_f_emlrt_marshallIn      000000018001df40 f   c2_real_time_test.obj
 0001:0001cfd0       c2_g_emlrt_marshallIn      000000018001dfd0 f   c2_real_time_test.obj
 0001:0001d040       c2_h_emlrt_marshallIn      000000018001e040 f   c2_real_time_test.obj
 0001:0001d0d0       c2_chart_data_browse_helper 000000018001e0d0 f   c2_real_time_test.obj
 0001:0001d2a0       c2_assert                  000000018001e2a0 f   c2_real_time_test.obj
 0001:0001d360       c2_b_assert                000000018001e360 f   c2_real_time_test.obj
 0001:0001d420       c2_b_ComputeArea           000000018001e420 f   c2_real_time_test.obj
 0001:0001d820       c2_b_ComputePixelList      000000018001e820 f   c2_real_time_test.obj
 0001:0001fb70       c2_emxCopyStruct_s_VeYncwf9ecih6GB 0000000180020b70 f   c2_real_time_test.obj
 0001:0001fc10       c2_emxCopyMatrix_real_T    0000000180020c10 f   c2_real_time_test.obj
 0001:0001fc70       c2_emxCopy_real_T          0000000180020c70 f   c2_real_time_test.obj
 0001:0001fdd0       c2_emxEnsureCapacity_real_T 0000000180020dd0 f   c2_real_time_test.obj
 0001:0001ff40       c2_emxEnsureCapacity_real_T1 0000000180020f40 f   c2_real_time_test.obj
 0001:000200b0       c2_emxInit_s_VeYncwf9ecih6GBw6CjRR 00000001800210b0 f   c2_real_time_test.obj
 0001:000201b0       c2_emxInit_cell_wrap_1     00000001800211b0 f   c2_real_time_test.obj
 0001:000202b0       c2_emxInit_real_T          00000001800212b0 f   c2_real_time_test.obj
 0001:000203b0       c2_emxInit_real_T1         00000001800213b0 f   c2_real_time_test.obj
 0001:000204b0       c2_emxInitStruct_s_VeYncwf9ecih6GB 00000001800214b0 f   c2_real_time_test.obj
 0001:00020500       c2_emxFree_s_VeYncwf9ecih6GBw6CjRR 0000000180021500 f   c2_real_time_test.obj
 0001:00020620       c2_emxFree_real_T          0000000180021620 f   c2_real_time_test.obj
 0001:000206a0       c2_emxFreeStruct_s_VeYncwf9ecih6GB 00000001800216a0 f   c2_real_time_test.obj
 0001:000206d0       c2_emxFree_cell_wrap_1     00000001800216d0 f   c2_real_time_test.obj
 0001:000207f0       c2_emxFreeStruct_cell_wrap_1 00000001800217f0 f   c2_real_time_test.obj
 0001:00020820       c2_emxEnsureCapacity_boolean_T 0000000180021820 f   c2_real_time_test.obj
 0001:00020990       c2_emxTrim_s_VeYncwf9ecih6GBw6CjRR 0000000180021990 f   c2_real_time_test.obj
 0001:00020a00       c2_emxExpand_s_VeYncwf9ecih6GBw6Cj 0000000180021a00 f   c2_real_time_test.obj
 0001:00020a70       c2_emxEnsureCapacity_s_VeYncwf9eci 0000000180021a70 f   c2_real_time_test.obj
 0001:00020c50       c2_emxEnsureCapacity_int32_T 0000000180021c50 f   c2_real_time_test.obj
 0001:00020dc0       c2_emxInitStruct_s_vX9LV7M75v5ZNol 0000000180021dc0 f   c2_real_time_test.obj
 0001:00020e40       c2_emxInit_int32_T         0000000180021e40 f   c2_real_time_test.obj
 0001:00020f40       c2_emxInit_s_bxcgeNxEuVlgmMh5HwQaX 0000000180021f40 f   c2_real_time_test.obj
 0001:00021040       c2_emxInit_boolean_T       0000000180022040 f   c2_real_time_test.obj
 0001:00021140       c2_emxFreeStruct_s_vX9LV7M75v5ZNol 0000000180022140 f   c2_real_time_test.obj
 0001:00021190       c2_emxFree_int32_T         0000000180022190 f   c2_real_time_test.obj
 0001:00021210       c2_emxFree_s_bxcgeNxEuVlgmMh5HwQaX 0000000180022210 f   c2_real_time_test.obj
 0001:00021330       c2_emxFree_boolean_T       0000000180022330 f   c2_real_time_test.obj
 0001:000213b0       c2_emxFreeStruct_s_bxcgeNxEuVlgmMh 00000001800223b0 f   c2_real_time_test.obj
 0001:00021460       c2_emxTrim_s_bxcgeNxEuVlgmMh5HwQaX 0000000180022460 f   c2_real_time_test.obj
 0001:000214d0       c2_emxInitStruct_s_bxcgeNxEuVlgmMh 00000001800224d0 f   c2_real_time_test.obj
 0001:00021600       c2_emxInit_boolean_T1      0000000180022600 f   c2_real_time_test.obj
 0001:00021700       c2_emxExpand_s_bxcgeNxEuVlgmMh5HwQ 0000000180022700 f   c2_real_time_test.obj
 0001:00021770       c2_emxEnsureCapacity_s_bxcgeNxEuVl 0000000180022770 f   c2_real_time_test.obj
 0001:00021950       c2_emxCopyStruct_s_bxcgeNxEuVlgmMh 0000000180022950 f   c2_real_time_test.obj
 0001:00021cb0       c2_emxCopyMatrix_real_T1   0000000180022cb0 f   c2_real_time_test.obj
 0001:00021d10       c2_emxCopy_boolean_T       0000000180022d10 f   c2_real_time_test.obj
 0001:00021e70       c2_emxEnsureCapacity_boolean_T1 0000000180022e70 f   c2_real_time_test.obj
 0001:00021fe0       c2_emxCopyMatrix_real_T2   0000000180022fe0 f   c2_real_time_test.obj
 0001:00022040       c2_emxCopy_real_T1         0000000180023040 f   c2_real_time_test.obj
 0001:000221a0       c2_emxTrim_cell_wrap_1     00000001800231a0 f   c2_real_time_test.obj
 0001:00022210       c2_emxInitStruct_cell_wrap_1 0000000180023210 f   c2_real_time_test.obj
 0001:00022260       c2_emxExpand_cell_wrap_1   0000000180023260 f   c2_real_time_test.obj
 0001:000222d0       c2_emxEnsureCapacity_cell_wrap_1 00000001800232d0 f   c2_real_time_test.obj
 0001:000224b0       c2_emxInitMatrix_cell_wrap_30 00000001800234b0 f   c2_real_time_test.obj
 0001:00022520       c2_emxInitStruct_cell_wrap_30 0000000180023520 f   c2_real_time_test.obj
 0001:00022570       c2_emxFreeMatrix_cell_wrap_30 0000000180023570 f   c2_real_time_test.obj
 0001:000225d0       c2_emxFreeStruct_cell_wrap_30 00000001800235d0 f   c2_real_time_test.obj
 0001:00022600       c2_div_nzp_s32             0000000180023600 f   c2_real_time_test.obj
 0001:000226e0       c2_div_s32                 00000001800236e0 f   c2_real_time_test.obj
 0001:00022810       init_dsm_address_info      0000000180023810 f   c2_real_time_test.obj
 0001:00022820       init_simulink_io_address   0000000180023820 f   c2_real_time_test.obj
 0001:00022bc0       sf_get_sim_state_info_c2_real_time_test 0000000180023bc0 f   c2_real_time_test.obj
 0001:00022c80       sf_opaque_initialize_c2_real_time_test 0000000180023c80 f   c2_real_time_test.obj
 0001:00022cb0       sf_opaque_enable_c2_real_time_test 0000000180023cb0 f   c2_real_time_test.obj
 0001:00022cd0       sf_opaque_disable_c2_real_time_test 0000000180023cd0 f   c2_real_time_test.obj
 0001:00022cf0       sf_opaque_gateway_c2_real_time_test 0000000180023cf0 f   c2_real_time_test.obj
 0001:00022d10       sf_opaque_get_sim_state_c2_real_time_test 0000000180023d10 f   c2_real_time_test.obj
 0001:00022d40       sf_opaque_set_sim_state_c2_real_time_test 0000000180023d40 f   c2_real_time_test.obj
 0001:00022d70       sf_opaque_cleanup_runtime_resources_c2_real_time_test 0000000180023d70 f   c2_real_time_test.obj
 0001:00022e10       sf_opaque_mdl_start_c2_real_time_test 0000000180023e10 f   c2_real_time_test.obj
 0001:00022e30       sf_opaque_mdl_terminate_c2_real_time_test 0000000180023e30 f   c2_real_time_test.obj
 0001:00022e50       mdlProcessParameters_c2_real_time_test 0000000180023e50 f   c2_real_time_test.obj
 0001:000230d0       mdlSetWorkWidths_c2_real_time_test 00000001800240d0 f   c2_real_time_test.obj
 0001:00023160       mdlRTW_c2_real_time_test   0000000180024160 f   c2_real_time_test.obj
 0001:000231a0       mdlSetupRuntimeResources_c2_real_time_test 00000001800241a0 f   c2_real_time_test.obj
 0001:00025b2c       $LN193                     0000000180026b2c     real_time_test_sfun_registry.obj
 0001:00026924       $LN22                      0000000180027924     real_time_test_sfun_registry.obj
 0001:00027024       $LN26                      0000000180028024     real_time_test_sfun_registry.obj
 0001:00027704       $LN24                      0000000180028704     real_time_test_sfun_registry.obj
 0001:000282bc       $LN30                      00000001800292bc     real_time_test_sfun_registry.obj
 0001:0002acb0       ProcessMexSfunctionCmdLineCall 000000018002bcb0 f   real_time_test_sfun_registry.obj
 0001:0002afc0       mdlSetWorkWidths           000000018002bfc0 f   real_time_test_sfun_registry.obj
 0001:0002b010       mdlProcessParameters       000000018002c010 f   real_time_test_sfun_registry.obj
 0001:0002b040       mdl_setup_runtime_resources_processing 000000018002c040 f   real_time_test_sfun_registry.obj
 0001:0002b0a0       mdlSetupRuntimeResources   000000018002c0a0 f   real_time_test_sfun_registry.obj
 0001:0002b0d0       mdl_cleanup_runtime_resources_processing 000000018002c0d0 f   real_time_test_sfun_registry.obj
 0001:0002b190       mdlCleanupRuntimeResources 000000018002c190 f   real_time_test_sfun_registry.obj
 0001:0002b1c0       mdl_start_processing       000000018002c1c0 f   real_time_test_sfun_registry.obj
 0001:0002b200       mdlStart                   000000018002c200 f   real_time_test_sfun_registry.obj
 0001:0002b230       mdl_terminate_processing   000000018002c230 f   real_time_test_sfun_registry.obj
 0001:0002b270       mdlTerminate               000000018002c270 f   real_time_test_sfun_registry.obj
 0001:0002b2a0       mdlInitializeSizes         000000018002c2a0 f   real_time_test_sfun_registry.obj
 0001:0002b2d0       mdlInitializeSampleTimes   000000018002c2d0 f   real_time_test_sfun_registry.obj
 0001:0002b300       mdl_outputs_continuous_legacy 000000018002c300 f   real_time_test_sfun_registry.obj
 0001:0002b400       mdl_outputs_processing     000000018002c400 f   real_time_test_sfun_registry.obj
 0001:0002b520       mdl_zeroCrossings_processing 000000018002c520 f   real_time_test_sfun_registry.obj
 0001:0002b560       mdlZeroCrossings           000000018002c560 f   real_time_test_sfun_registry.obj
 0001:0002b590       mdl_derivatives_processing 000000018002c590 f   real_time_test_sfun_registry.obj
 0001:0002b5e0       mdlDerivatives             000000018002c5e0 f   real_time_test_sfun_registry.obj
 0001:0002b610       mdl_initialize_conditions_processing 000000018002c610 f   real_time_test_sfun_registry.obj
 0001:0002b660       mdlInitializeConditions    000000018002c660 f   real_time_test_sfun_registry.obj
 0001:0002b690       mdl_ext_mode_exec_processing 000000018002c690 f   real_time_test_sfun_registry.obj
 0001:0002b6d0       mdlExtModeExec             000000018002c6d0 f   real_time_test_sfun_registry.obj
 0001:0002b700       mdlRTW                     000000018002c700 f   real_time_test_sfun_registry.obj
 0001:0002b740       mdl_enable_processing      000000018002c740 f   real_time_test_sfun_registry.obj
 0001:0002b780       mdlEnable                  000000018002c780 f   real_time_test_sfun_registry.obj
 0001:0002b7b0       mdl_disable_processing     000000018002c7b0 f   real_time_test_sfun_registry.obj
 0001:0002b7f0       mdlDisable                 000000018002c7f0 f   real_time_test_sfun_registry.obj
 0001:0002b820       mdlOutputs                 000000018002c820 f   real_time_test_sfun_registry.obj
 0001:0002b850       mdl_update_processing      000000018002c850 f   real_time_test_sfun_registry.obj
 0001:0002b8a0       mdlUpdate                  000000018002c8a0 f   real_time_test_sfun_registry.obj
 0001:0002ba90       mdlGetTimeOfNextVarHit     000000018002ca90 f   real_time_test_sfun_registry.obj
 0001:0002bae0       _RegNumInputPortsCB        000000018002cae0 f   real_time_test_sfun_registry.obj
 0001:0002bb60       _RegNumOutputPortsCB       000000018002cb60 f   real_time_test_sfun_registry.obj
 0001:0002bbe0       _CreateSimStruct           000000018002cbe0 f   real_time_test_sfun_registry.obj
 0001:0002be10       _ProcessMexSfunctionCmdLineCall 000000018002ce10 f   real_time_test_sfun_registry.obj
 0001:0002c880       ReportIndexOutOfBoundsError 000000018002d880 f   real_time_test_sfun_registry.obj
 0001:0002d7cc       capture_current_context    000000018002e7cc f   MSVCRT:gs_report.obj
 0001:0002d83c       capture_previous_context   000000018002e83c f   MSVCRT:gs_report.obj
 0001:0002d930       $$000000                   000000018002e930     MSVCRT:amdsecgs.obj
 0001:0002d960       $$000000                   000000018002e960     MSVCRT:chkstk.obj
 0001:0002d9c0       ?dllmain_crt_dispatch@@YAHQEAUHINSTANCE__@@KQEAX@Z 000000018002e9c0 f   MSVCRT:dll_dllmain.obj
 0001:0002da10       ?dllmain_crt_process_attach@@YAHQEAUHINSTANCE__@@QEAX@Z 000000018002ea10 f   MSVCRT:dll_dllmain.obj
 0001:0002db28       ?dllmain_crt_process_detach@@YAH_N@Z 000000018002eb28 f   MSVCRT:dll_dllmain.obj
 0001:0002dbac       ?dllmain_dispatch@@YAHQEAUHINSTANCE__@@KQEAX@Z 000000018002ebac f   MSVCRT:dll_dllmain.obj
 0001:0002dce0       ?dllmain_raw@@YAHQEAUHINSTANCE__@@KQEAX@Z 000000018002ece0 f   MSVCRT:dll_dllmain.obj
 0001:0002dd44       __get_entropy              000000018002ed44 f   MSVCRT:gs_support.obj
 0001:0002ded4       ?find_pe_section@@YAPEAU_IMAGE_SECTION_HEADER@@QEAE_K@Z 000000018002eed4 f   MSVCRT:utility.obj
 0001:0002df28       ?is_potentially_valid_image_base@@YA_NQEAX@Z 000000018002ef28 f   MSVCRT:utility.obj
 0001:0002e674       __castguard_compat_check   000000018002f674 f   MSVCRT:guard_support.obj
 0001:0002e760       __castguard_slow_path_compat_check 000000018002f760 f   MSVCRT:guard_support.obj
 0001:0002ea60       $$000000                   000000018002fa60     MSVCRT:guard_dispatch.obj
 0001:0002ea80       $$000000                   000000018002fa80     MSVCRT:guard_xfg_dispatch.obj
 0001:0002ea96       ?fin$0@?0??dllmain_crt_process_attach@@YAHQEAUHINSTANCE__@@QEAX@Z@4HA 000000018002fa96 f   MSVCRT:dll_dllmain.obj
 0001:0002eaad       ?fin$0@?0??dllmain_crt_process_detach@@YAH_N@Z@4HA 000000018002faad f   MSVCRT:dll_dllmain.obj
 0001:0002eac6       ?fin$1@?0??dllmain_crt_process_detach@@YAH_N@Z@4HA 000000018002fac6 f   MSVCRT:dll_dllmain.obj
 0001:0002eada       ?filt$0@?0??dllmain_dispatch@@YAHQEAUHINSTANCE__@@KQEAX@Z@4HA 000000018002fada f   MSVCRT:dll_dllmain.obj
 0001:0002eb10       __scrt_is_nonwritable_in_current_image$filt$0 000000018002fb10 f   MSVCRT:utility.obj
 0002:000005f0       c2_cv                      00000001800305f0     c2_real_time_test.obj
 0002:00000600       c2_cv1                     0000000180030600     c2_real_time_test.obj
 0002:00000624       ?c2_decisionTxtEndIdx@?1??mdl_setup_runtime_resources_c2_real_time_test@@9@9 0000000180030624     c2_real_time_test.obj
 0002:00000628       c2_cv2                     0000000180030628     c2_real_time_test.obj
 0002:0000063c       ?c2_decisionTxtStartIdx@?1??mdl_setup_runtime_resources_c2_real_time_test@@9@9 000000018003063c     c2_real_time_test.obj
 0002:00000750       GS_ExceptionPointers       0000000180030750     MSVCRT:gs_report.obj
 0002:00000ce8       $unwind$load_real_time_test_optimization_info 0000000180030ce8     real_time_test_sfun.obj
 0002:00000cf0       $unwind$unload_real_time_test_optimization_info 0000000180030cf0     real_time_test_sfun.obj
 0002:00000cf8       $unwind$sf_real_time_test_method_dispatcher 0000000180030cf8     real_time_test_sfun.obj
 0002:00000d00       $unwind$sf_real_time_test_process_check_sum_call 0000000180030d00     real_time_test_sfun.obj
 0002:00000d10       $unwind$sf_real_time_test_get_eml_resolved_functions_info 0000000180030d10     real_time_test_sfun.obj
 0002:00000d20       $unwind$sf_real_time_test_third_party_uses_info 0000000180030d20     real_time_test_sfun.obj
 0002:00000d30       $unwind$sf_real_time_test_jit_fallback_info 0000000180030d30     real_time_test_sfun.obj
 0002:00000d40       $unwind$sf_real_time_test_get_post_codegen_info 0000000180030d40     real_time_test_sfun.obj
 0002:00000d50       $unwind$sf_real_time_test_updateBuildInfo_args_info 0000000180030d50     real_time_test_sfun.obj
 0002:00000d60       $unwind$sf_c2_real_time_test_get_eml_resolved_functions_info 0000000180030d60     c2_real_time_test.obj
 0002:00000d68       $unwind$sf_c2_real_time_test_get_check_sum 0000000180030d68     c2_real_time_test.obj
 0002:00000d70       $unwind$c2_real_time_test_method_dispatcher 0000000180030d70     c2_real_time_test.obj
 0002:00000d78       $unwind$initialize_c2_real_time_test 0000000180030d78     c2_real_time_test.obj
 0002:00000d80       $unwind$enable_c2_real_time_test 0000000180030d80     c2_real_time_test.obj
 0002:00000d88       $unwind$disable_c2_real_time_test 0000000180030d88     c2_real_time_test.obj
 0002:00000d90       $unwind$c2_do_animation_call_c2_real_time_test 0000000180030d90     c2_real_time_test.obj
 0002:00000d98       $unwind$get_sim_state_c2_real_time_test 0000000180030d98     c2_real_time_test.obj
 0002:00000da0       $unwind$set_sim_state_c2_real_time_test 0000000180030da0     c2_real_time_test.obj
 0002:00000da8       $unwind$sf_gateway_c2_real_time_test 0000000180030da8     c2_real_time_test.obj
 0002:00000db8       $unwind$mdl_setup_runtime_resources_c2_real_time_test 0000000180030db8     c2_real_time_test.obj
 0002:00000dc0       $unwind$mdl_cleanup_runtime_resources_c2_real_time_test 0000000180030dc0     c2_real_time_test.obj
 0002:00000dc8       $unwind$c2_imgaussfilt     0000000180030dc8     c2_real_time_test.obj
 0002:00000dd8       $unwind$c2_padImage        0000000180030dd8     c2_real_time_test.obj
 0002:00000de0       $unwind$c2_computeGlobalThreshold 0000000180030de0     c2_real_time_test.obj
 0002:00000df0       $unwind$c2_otsuthresh      0000000180030df0     c2_real_time_test.obj
 0002:00000e00       $unwind$c2_regionprops     0000000180030e00     c2_real_time_test.obj
 0002:00000e10       $unwind$c2_bwconncomp      0000000180030e10     c2_real_time_test.obj
 0002:00000e18       $unwind$c2_check_forloop_overflow_error 0000000180030e18     c2_real_time_test.obj
 0002:00000e20       $unwind$c2_sumColumnB      0000000180030e20     c2_real_time_test.obj
 0002:00000e28       $unwind$c2_sumColumnB4     0000000180030e28     c2_real_time_test.obj
 0002:00000e30       $unwind$c2_b_sumColumnB    0000000180030e30     c2_real_time_test.obj
 0002:00000e38       $unwind$c2_useConstantDim  0000000180030e38     c2_real_time_test.obj
 0002:00000e40       $unwind$c2_assertValidSizeArg 0000000180030e40     c2_real_time_test.obj
 0002:00000e48       $unwind$c2_initializeStatsStruct 0000000180030e48     c2_real_time_test.obj
 0002:00000e58       $unwind$c2_c_sumColumnB    0000000180030e58     c2_real_time_test.obj
 0002:00000e60       $unwind$c2_b_sumColumnB4   0000000180030e60     c2_real_time_test.obj
 0002:00000e68       $unwind$c2_d_sumColumnB    0000000180030e68     c2_real_time_test.obj
 0002:00000e70       $unwind$c2_imerode         0000000180030e70     c2_real_time_test.obj
 0002:00000e78       $unwind$c2_bwboundaries    0000000180030e78     c2_real_time_test.obj
 0002:00000e84       $unwind$c2_findObjectBoundaries 0000000180030e84     c2_real_time_test.obj
 0002:00000e94       $unwind$c2_bwlabel         0000000180030e94     c2_real_time_test.obj
 0002:00000ea4       $unwind$c2_padarray        0000000180030ea4     c2_real_time_test.obj
 0002:00000eac       $unwind$c2_BoundaryFinder_findBoundaries 0000000180030eac     c2_real_time_test.obj
 0002:00000eb4       $unwind$c2_findHoleBoundaries 0000000180030eb4     c2_real_time_test.obj
 0002:00000ebc       $unwind$c2_imclearborder   0000000180030ebc     c2_real_time_test.obj
 0002:00000ecc       $unwind$c2_b_imerode       0000000180030ecc     c2_real_time_test.obj
 0002:00000ed4       $unwind$c2_imreconstruct   0000000180030ed4     c2_real_time_test.obj
 0002:00000edc       $unwind$c2_b_bwlabel       0000000180030edc     c2_real_time_test.obj
 0002:00000eec       $unwind$c2_vertConcatenateCells 0000000180030eec     c2_real_time_test.obj
 0002:00000ef4       $unwind$c2_emlrt_marshallIn 0000000180030ef4     c2_real_time_test.obj
 0002:00000efc       $unwind$c2_b_emlrt_marshallIn 0000000180030efc     c2_real_time_test.obj
 0002:00000f04       $unwind$c2_c_emlrt_marshallIn 0000000180030f04     c2_real_time_test.obj
 0002:00000f0c       $unwind$c2_d_emlrt_marshallIn 0000000180030f0c     c2_real_time_test.obj
 0002:00000f1c       $unwind$c2_e_emlrt_marshallIn 0000000180030f1c     c2_real_time_test.obj
 0002:00000f24       $unwind$c2_f_emlrt_marshallIn 0000000180030f24     c2_real_time_test.obj
 0002:00000f2c       $unwind$c2_g_emlrt_marshallIn 0000000180030f2c     c2_real_time_test.obj
 0002:00000f34       $unwind$c2_h_emlrt_marshallIn 0000000180030f34     c2_real_time_test.obj
 0002:00000f3c       $unwind$c2_chart_data_browse_helper 0000000180030f3c     c2_real_time_test.obj
 0002:00000f44       $unwind$c2_assert          0000000180030f44     c2_real_time_test.obj
 0002:00000f4c       $unwind$c2_b_assert        0000000180030f4c     c2_real_time_test.obj
 0002:00000f54       $unwind$c2_b_ComputeArea   0000000180030f54     c2_real_time_test.obj
 0002:00000f5c       $unwind$c2_b_ComputePixelList 0000000180030f5c     c2_real_time_test.obj
 0002:00000f64       $unwind$c2_emxCopyStruct_s_VeYncwf9ecih6GB 0000000180030f64     c2_real_time_test.obj
 0002:00000f6c       $unwind$c2_emxCopyMatrix_real_T 0000000180030f6c     c2_real_time_test.obj
 0002:00000f74       $unwind$c2_emxCopy_real_T  0000000180030f74     c2_real_time_test.obj
 0002:00000f7c       $unwind$c2_emxEnsureCapacity_real_T 0000000180030f7c     c2_real_time_test.obj
 0002:00000f84       $unwind$c2_emxEnsureCapacity_real_T1 0000000180030f84     c2_real_time_test.obj
 0002:00000f8c       $unwind$c2_emxInit_s_VeYncwf9ecih6GBw6CjRR 0000000180030f8c     c2_real_time_test.obj
 0002:00000f94       $unwind$c2_emxInit_cell_wrap_1 0000000180030f94     c2_real_time_test.obj
 0002:00000f9c       $unwind$c2_emxInit_real_T  0000000180030f9c     c2_real_time_test.obj
 0002:00000fa4       $unwind$c2_emxInit_real_T1 0000000180030fa4     c2_real_time_test.obj
 0002:00000fac       $unwind$c2_emxInitStruct_s_VeYncwf9ecih6GB 0000000180030fac     c2_real_time_test.obj
 0002:00000fb4       $unwind$c2_emxFree_s_VeYncwf9ecih6GBw6CjRR 0000000180030fb4     c2_real_time_test.obj
 0002:00000fbc       $unwind$c2_emxFree_real_T  0000000180030fbc     c2_real_time_test.obj
 0002:00000fc4       $unwind$c2_emxFreeStruct_s_VeYncwf9ecih6GB 0000000180030fc4     c2_real_time_test.obj
 0002:00000fcc       $unwind$c2_emxFree_cell_wrap_1 0000000180030fcc     c2_real_time_test.obj
 0002:00000fd4       $unwind$c2_emxFreeStruct_cell_wrap_1 0000000180030fd4     c2_real_time_test.obj
 0002:00000fdc       $unwind$c2_emxEnsureCapacity_boolean_T 0000000180030fdc     c2_real_time_test.obj
 0002:00000fe4       $unwind$c2_emxTrim_s_VeYncwf9ecih6GBw6CjRR 0000000180030fe4     c2_real_time_test.obj
 0002:00000fec       $unwind$c2_emxExpand_s_VeYncwf9ecih6GBw6Cj 0000000180030fec     c2_real_time_test.obj
 0002:00000ff4       $unwind$c2_emxEnsureCapacity_s_VeYncwf9eci 0000000180030ff4     c2_real_time_test.obj
 0002:00000ffc       $unwind$c2_emxEnsureCapacity_int32_T 0000000180030ffc     c2_real_time_test.obj
 0002:00001004       $unwind$c2_emxInitStruct_s_vX9LV7M75v5ZNol 0000000180031004     c2_real_time_test.obj
 0002:0000100c       $unwind$c2_emxInit_int32_T 000000018003100c     c2_real_time_test.obj
 0002:00001014       $unwind$c2_emxInit_s_bxcgeNxEuVlgmMh5HwQaX 0000000180031014     c2_real_time_test.obj
 0002:0000101c       $unwind$c2_emxInit_boolean_T 000000018003101c     c2_real_time_test.obj
 0002:00001024       $unwind$c2_emxFreeStruct_s_vX9LV7M75v5ZNol 0000000180031024     c2_real_time_test.obj
 0002:0000102c       $unwind$c2_emxFree_int32_T 000000018003102c     c2_real_time_test.obj
 0002:00001034       $unwind$c2_emxFree_s_bxcgeNxEuVlgmMh5HwQaX 0000000180031034     c2_real_time_test.obj
 0002:0000103c       $unwind$c2_emxFree_boolean_T 000000018003103c     c2_real_time_test.obj
 0002:00001044       $unwind$c2_emxFreeStruct_s_bxcgeNxEuVlgmMh 0000000180031044     c2_real_time_test.obj
 0002:0000104c       $unwind$c2_emxTrim_s_bxcgeNxEuVlgmMh5HwQaX 000000018003104c     c2_real_time_test.obj
 0002:00001054       $unwind$c2_emxInitStruct_s_bxcgeNxEuVlgmMh 0000000180031054     c2_real_time_test.obj
 0002:0000105c       $unwind$c2_emxInit_boolean_T1 000000018003105c     c2_real_time_test.obj
 0002:00001064       $unwind$c2_emxExpand_s_bxcgeNxEuVlgmMh5HwQ 0000000180031064     c2_real_time_test.obj
 0002:0000106c       $unwind$c2_emxEnsureCapacity_s_bxcgeNxEuVl 000000018003106c     c2_real_time_test.obj
 0002:00001074       $unwind$c2_emxCopyStruct_s_bxcgeNxEuVlgmMh 0000000180031074     c2_real_time_test.obj
 0002:0000107c       $unwind$c2_emxCopyMatrix_real_T1 000000018003107c     c2_real_time_test.obj
 0002:00001084       $unwind$c2_emxCopy_boolean_T 0000000180031084     c2_real_time_test.obj
 0002:0000108c       $unwind$c2_emxEnsureCapacity_boolean_T1 000000018003108c     c2_real_time_test.obj
 0002:00001094       $unwind$c2_emxCopyMatrix_real_T2 0000000180031094     c2_real_time_test.obj
 0002:0000109c       $unwind$c2_emxCopy_real_T1 000000018003109c     c2_real_time_test.obj
 0002:000010a4       $unwind$c2_emxTrim_cell_wrap_1 00000001800310a4     c2_real_time_test.obj
 0002:000010ac       $unwind$c2_emxInitStruct_cell_wrap_1 00000001800310ac     c2_real_time_test.obj
 0002:000010b4       $unwind$c2_emxExpand_cell_wrap_1 00000001800310b4     c2_real_time_test.obj
 0002:000010bc       $unwind$c2_emxEnsureCapacity_cell_wrap_1 00000001800310bc     c2_real_time_test.obj
 0002:000010c4       $unwind$c2_emxInitMatrix_cell_wrap_30 00000001800310c4     c2_real_time_test.obj
 0002:000010cc       $unwind$c2_emxInitStruct_cell_wrap_30 00000001800310cc     c2_real_time_test.obj
 0002:000010d4       $unwind$c2_emxFreeMatrix_cell_wrap_30 00000001800310d4     c2_real_time_test.obj
 0002:000010dc       $unwind$c2_emxFreeStruct_cell_wrap_30 00000001800310dc     c2_real_time_test.obj
 0002:000010e4       $unwind$c2_div_nzp_s32     00000001800310e4     c2_real_time_test.obj
 0002:000010ec       $unwind$c2_div_s32         00000001800310ec     c2_real_time_test.obj
 0002:000010f4       $unwind$init_simulink_io_address 00000001800310f4     c2_real_time_test.obj
 0002:000010fc       $unwind$sf_c2_real_time_test_third_party_uses_info 00000001800310fc     c2_real_time_test.obj
 0002:00001104       $unwind$sf_c2_real_time_test_jit_fallback_info 0000000180031104     c2_real_time_test.obj
 0002:00001114       $unwind$sf_c2_real_time_test_updateBuildInfo_args_info 0000000180031114     c2_real_time_test.obj
 0002:0000111c       $unwind$sf_get_sim_state_info_c2_real_time_test 000000018003111c     c2_real_time_test.obj
 0002:00001124       $unwind$sf_opaque_initialize_c2_real_time_test 0000000180031124     c2_real_time_test.obj
 0002:0000112c       $unwind$sf_opaque_enable_c2_real_time_test 000000018003112c     c2_real_time_test.obj
 0002:00001134       $unwind$sf_opaque_disable_c2_real_time_test 0000000180031134     c2_real_time_test.obj
 0002:0000113c       $unwind$sf_opaque_gateway_c2_real_time_test 000000018003113c     c2_real_time_test.obj
 0002:00001144       $unwind$sf_opaque_get_sim_state_c2_real_time_test 0000000180031144     c2_real_time_test.obj
 0002:0000114c       $unwind$sf_opaque_set_sim_state_c2_real_time_test 000000018003114c     c2_real_time_test.obj
 0002:00001154       $unwind$sf_opaque_cleanup_runtime_resources_c2_real_time_test 0000000180031154     c2_real_time_test.obj
 0002:0000115c       $unwind$sf_opaque_mdl_start_c2_real_time_test 000000018003115c     c2_real_time_test.obj
 0002:00001164       $unwind$sf_opaque_mdl_terminate_c2_real_time_test 0000000180031164     c2_real_time_test.obj
 0002:0000116c       $unwind$mdlProcessParameters_c2_real_time_test 000000018003116c     c2_real_time_test.obj
 0002:00001174       $unwind$sf_c2_real_time_test_get_post_codegen_info 0000000180031174     c2_real_time_test.obj
 0002:00001184       $unwind$mdlSetWorkWidths_c2_real_time_test 0000000180031184     c2_real_time_test.obj
 0002:0000118c       $unwind$mdlRTW_c2_real_time_test 000000018003118c     c2_real_time_test.obj
 0002:00001194       $unwind$mdlSetupRuntimeResources_c2_real_time_test 0000000180031194     c2_real_time_test.obj
 0002:0000119c       $unwind$_vsnprintf_l       000000018003119c     real_time_test_sfun_registry.obj
 0002:000011a4       $unwind$_vsprintf_l        00000001800311a4     real_time_test_sfun_registry.obj
 0002:000011ac       $unwind$sprintf            00000001800311ac     real_time_test_sfun_registry.obj
 0002:000011b4       $unwind$mexFunction        00000001800311b4     real_time_test_sfun_registry.obj
 0002:000011c4       $unwind$_ssSetInputPortDirectFeedThroughFcn 00000001800311c4     real_time_test_sfun_registry.obj
 0002:000011d4       $unwind$_ssSetRWorkValueFcn 00000001800311d4     real_time_test_sfun_registry.obj
 0002:000011dc       $unwind$_ssGetRWorkValueFcn 00000001800311dc     real_time_test_sfun_registry.obj
 0002:000011e4       $unwind$_ssSetIWorkValueFcn 00000001800311e4     real_time_test_sfun_registry.obj
 0002:000011ec       $unwind$_ssGetIWorkValueFcn 00000001800311ec     real_time_test_sfun_registry.obj
 0002:000011f4       $unwind$_ssSetPWorkValueFcn 00000001800311f4     real_time_test_sfun_registry.obj
 0002:000011fc       $unwind$_ssGetPWorkValueFcn 00000001800311fc     real_time_test_sfun_registry.obj
 0002:00001204       $unwind$_ssGetInputPortSignalFcn 0000000180031204     real_time_test_sfun_registry.obj
 0002:00001214       $unwind$_ssGetInputPortBufferDstPortFcn 0000000180031214     real_time_test_sfun_registry.obj
 0002:0000121c       $unwind$_ssGetInputPortSignalPtrsFcn 000000018003121c     real_time_test_sfun_registry.obj
 0002:0000122c       $unwind$ssGetParameterTuningCompliance 000000018003122c     real_time_test_sfun_registry.obj
 0002:00001234       $unwind$ssGetDTypeIdFromMxArray 0000000180031234     real_time_test_sfun_registry.obj
 0002:0000123c       $unwind$ssWriteRTWMx2dMatParam 000000018003123c     real_time_test_sfun_registry.obj
 0002:00001244       $unwind$ssWriteRTWMxVectParam 0000000180031244     real_time_test_sfun_registry.obj
 0002:0000124c       $unwind$ssWriteRTWParameters 000000018003124c     real_time_test_sfun_registry.obj
 0002:00001254       $unwind$ssWriteRTWParamSettings 0000000180031254     real_time_test_sfun_registry.obj
 0002:0000125c       $unwind$ssWriteRTWStr      000000018003125c     real_time_test_sfun_registry.obj
 0002:00001264       $unwind$ssWriteRTWWorkVect 0000000180031264     real_time_test_sfun_registry.obj
 0002:00001278       $unwind$ssWarning          0000000180031278     real_time_test_sfun_registry.obj
 0002:0000128c       $unwind$ssWriteRTWNameValuePair 000000018003128c     real_time_test_sfun_registry.obj
 0002:00001294       $unwind$_ssSetInputPortMatrixDimensions 0000000180031294     real_time_test_sfun_registry.obj
 0002:000012a0       $unwind$_ssSetOutputPortMatrixDimensions 00000001800312a0     real_time_test_sfun_registry.obj
 0002:000012ac       $unwind$_ssSetInputPortVectorDimension 00000001800312ac     real_time_test_sfun_registry.obj
 0002:000012b8       $unwind$_ssSetOutputPortVectorDimension 00000001800312b8     real_time_test_sfun_registry.obj
 0002:000012c4       $unwind$ssIsRunTimeParamTunable 00000001800312c4     real_time_test_sfun_registry.obj
 0002:000012cc       $unwind$ssGetSFuncBlockHandle 00000001800312cc     real_time_test_sfun_registry.obj
 0002:000012d4       $unwind$_ssGetCurrentInputPortWidth 00000001800312d4     real_time_test_sfun_registry.obj
 0002:000012dc       $unwind$_ssGetCurrentOutputPortWidth 00000001800312dc     real_time_test_sfun_registry.obj
 0002:000012e4       $unwind$_ssGetCallSystemNumFcnCallDestinations 00000001800312e4     real_time_test_sfun_registry.obj
 0002:000012ec       $unwind$ssGetIsZeroCrossControlDisabled 00000001800312ec     real_time_test_sfun_registry.obj
 0002:000012f4       $unwind$ssSetIsInputPortUsedForContZcSignal 00000001800312f4     real_time_test_sfun_registry.obj
 0002:000012fc       $unwind$ssSetZcSignalIsZcElementDisc 00000001800312fc     real_time_test_sfun_registry.obj
 0002:0000130c       $unwind$ssSetZcSignalName  000000018003130c     real_time_test_sfun_registry.obj
 0002:00001314       $unwind$ssSetZcSignalWidth 0000000180031314     real_time_test_sfun_registry.obj
 0002:0000131c       $unwind$ssSetZcSignalZcEventType 000000018003131c     real_time_test_sfun_registry.obj
 0002:00001324       $unwind$ssSetZcSignalType  0000000180031324     real_time_test_sfun_registry.obj
 0002:0000132c       $unwind$ssSetZcSignalZcTol 000000018003132c     real_time_test_sfun_registry.obj
 0002:00001334       $unwind$ssSetZcSignalNeedsEventNotification 0000000180031334     real_time_test_sfun_registry.obj
 0002:0000133c       $unwind$ssCreateAndAddZcSignalInfo 000000018003133c     real_time_test_sfun_registry.obj
 0002:00001344       $unwind$ssCloneAndAddZcSignalInfo 0000000180031344     real_time_test_sfun_registry.obj
 0002:0000134c       $unwind$ssGetNumZcSignals  000000018003134c     real_time_test_sfun_registry.obj
 0002:00001354       $unwind$ssGetZcSignalVector 0000000180031354     real_time_test_sfun_registry.obj
 0002:0000135c       $unwind$ssGetZcSignalName  000000018003135c     real_time_test_sfun_registry.obj
 0002:00001364       $unwind$ssGetZcSignalWidth 0000000180031364     real_time_test_sfun_registry.obj
 0002:0000136c       $unwind$ssGetZcSignalZcEventType 000000018003136c     real_time_test_sfun_registry.obj
 0002:00001374       $unwind$ssGetZcSignalZcEvents 0000000180031374     real_time_test_sfun_registry.obj
 0002:0000137c       $unwind$ssGetZcSignalType  000000018003137c     real_time_test_sfun_registry.obj
 0002:00001384       $unwind$ssGetZcSignalZcTol 0000000180031384     real_time_test_sfun_registry.obj
 0002:0000138c       $unwind$ssGetZcSignalNeedsEventNotification 000000018003138c     real_time_test_sfun_registry.obj
 0002:00001394       $unwind$ssGetZcSignalIsZcElementDisc 0000000180031394     real_time_test_sfun_registry.obj
 0002:000013a4       $unwind$ssGetIsInputPortElementContinuous 00000001800313a4     real_time_test_sfun_registry.obj
 0002:000013b4       $unwind$_ssGetAbsTol       00000001800313b4     real_time_test_sfun_registry.obj
 0002:000013bc       $unwind$_ssSetInputPortReusableFcn 00000001800313bc     real_time_test_sfun_registry.obj
 0002:000013c4       $unwind$_ssSetOutputPortReusableFcn 00000001800313c4     real_time_test_sfun_registry.obj
 0002:000013cc       $unwind$_ssSetSymbolicDimsSupport 00000001800313cc     real_time_test_sfun_registry.obj
 0002:000013d4       $unwind$_ssRegisterSymbolicDimsExpr 00000001800313d4     real_time_test_sfun_registry.obj
 0002:000013dc       $unwind$_ssRegisterSymbolicDims 00000001800313dc     real_time_test_sfun_registry.obj
 0002:000013e4       $unwind$_ssRegisterSymbolicDimsString 00000001800313e4     real_time_test_sfun_registry.obj
 0002:000013ec       $unwind$_ssRegisterSymbolicDimsIntValue 00000001800313ec     real_time_test_sfun_registry.obj
 0002:000013f4       $unwind$_ssRegisterSymbolicDimsPlus 00000001800313f4     real_time_test_sfun_registry.obj
 0002:000013fc       $unwind$_ssRegisterSymbolicDimsMinus 00000001800313fc     real_time_test_sfun_registry.obj
 0002:00001404       $unwind$_ssRegisterSymbolicDimsMultiply 0000000180031404     real_time_test_sfun_registry.obj
 0002:0000140c       $unwind$_ssRegisterSymbolicDimsDivide 000000018003140c     real_time_test_sfun_registry.obj
 0002:00001414       $unwind$_ssGetNumSymbolicDims 0000000180031414     real_time_test_sfun_registry.obj
 0002:0000141c       $unwind$_ssGetSymbolicDim  000000018003141c     real_time_test_sfun_registry.obj
 0002:00001424       $unwind$_ssSetInputPortSymbolicDimsId 0000000180031424     real_time_test_sfun_registry.obj
 0002:0000142c       $unwind$_ssGetCompInputPortSymbolicDimsId 000000018003142c     real_time_test_sfun_registry.obj
 0002:00001434       $unwind$_ssSetCompInputPortSymbolicDimsId 0000000180031434     real_time_test_sfun_registry.obj
 0002:0000143c       $unwind$_ssSetOutputPortSymbolicDimsId 000000018003143c     real_time_test_sfun_registry.obj
 0002:00001444       $unwind$_ssGetCompOutputPortSymbolicDimsId 0000000180031444     real_time_test_sfun_registry.obj
 0002:0000144c       $unwind$_ssSetCompOutputPortSymbolicDimsId 000000018003144c     real_time_test_sfun_registry.obj
 0002:00001454       $unwind$_ssSetCompDWorkSymbolicDimsId 0000000180031454     real_time_test_sfun_registry.obj
 0002:0000145c       $unwind$sf_process_check_sum_call 000000018003145c     real_time_test_sfun_registry.obj
 0002:00001464       $unwind$sf_process_get_third_party_uses_info_call 0000000180031464     real_time_test_sfun_registry.obj
 0002:00001474       $unwind$sf_process_get_jit_fallback_info_call 0000000180031474     real_time_test_sfun_registry.obj
 0002:00001484       $unwind$sf_process_get_post_codegen_info_call 0000000180031484     real_time_test_sfun_registry.obj
 0002:00001494       $unwind$sf_process_get_updateBuildInfo_args_info_call 0000000180031494     real_time_test_sfun_registry.obj
 0002:000014a4       $unwind$sf_process_get_eml_resolved_functions_info_call 00000001800314a4     real_time_test_sfun_registry.obj
 0002:000014b4       $unwind$sf_mex_unlock_call 00000001800314b4     real_time_test_sfun_registry.obj
 0002:000014c4       $unwind$ProcessMexSfunctionCmdLineCall 00000001800314c4     real_time_test_sfun_registry.obj
 0002:000014cc       $unwind$sf_machine_global_initializer_called 00000001800314cc     real_time_test_sfun_registry.obj
 0002:000014d4       $unwind$sf_machine_global_method_dispatcher 00000001800314d4     real_time_test_sfun_registry.obj
 0002:000014dc       $unwind$sf_machine_global_terminator 00000001800314dc     real_time_test_sfun_registry.obj
 0002:000014e4       $unwind$sf_register_machine_exported_symbols 00000001800314e4     real_time_test_sfun_registry.obj
 0002:000014ec       $unwind$sf_machine_global_initializer 00000001800314ec     real_time_test_sfun_registry.obj
 0002:000014f4       $unwind$mdlGetSimState     00000001800314f4     real_time_test_sfun_registry.obj
 0002:000014fc       $unwind$mdlSetSimState     00000001800314fc     real_time_test_sfun_registry.obj
 0002:00001504       $unwind$mdlSetWorkWidths   0000000180031504     real_time_test_sfun_registry.obj
 0002:0000150c       $unwind$mdlProcessParameters 000000018003150c     real_time_test_sfun_registry.obj
 0002:00001514       $unwind$mdl_setup_runtime_resources_processing 0000000180031514     real_time_test_sfun_registry.obj
 0002:0000151c       $unwind$mdlSetupRuntimeResources 000000018003151c     real_time_test_sfun_registry.obj
 0002:00001524       $unwind$mdl_cleanup_runtime_resources_processing 0000000180031524     real_time_test_sfun_registry.obj
 0002:0000152c       $unwind$mdlCleanupRuntimeResources 000000018003152c     real_time_test_sfun_registry.obj
 0002:00001534       $unwind$mdl_start_processing 0000000180031534     real_time_test_sfun_registry.obj
 0002:0000153c       $unwind$mdlStart           000000018003153c     real_time_test_sfun_registry.obj
 0002:00001544       $unwind$mdl_terminate_processing 0000000180031544     real_time_test_sfun_registry.obj
 0002:0000154c       $unwind$mdlTerminate       000000018003154c     real_time_test_sfun_registry.obj
 0002:00001554       $unwind$mdlInitializeSizes 0000000180031554     real_time_test_sfun_registry.obj
 0002:0000155c       $unwind$mdlInitializeSampleTimes 000000018003155c     real_time_test_sfun_registry.obj
 0002:00001564       $unwind$mdl_outputs_continuous_legacy 0000000180031564     real_time_test_sfun_registry.obj
 0002:0000156c       $unwind$mdl_outputs_processing 000000018003156c     real_time_test_sfun_registry.obj
 0002:00001574       $unwind$mdl_zeroCrossings_processing 0000000180031574     real_time_test_sfun_registry.obj
 0002:0000157c       $unwind$mdlZeroCrossings   000000018003157c     real_time_test_sfun_registry.obj
 0002:00001584       $unwind$mdl_derivatives_processing 0000000180031584     real_time_test_sfun_registry.obj
 0002:0000158c       $unwind$mdlDerivatives     000000018003158c     real_time_test_sfun_registry.obj
 0002:00001594       $unwind$mdl_initialize_conditions_processing 0000000180031594     real_time_test_sfun_registry.obj
 0002:0000159c       $unwind$mdlInitializeConditions 000000018003159c     real_time_test_sfun_registry.obj
 0002:000015a4       $unwind$mdl_ext_mode_exec_processing 00000001800315a4     real_time_test_sfun_registry.obj
 0002:000015ac       $unwind$mdlExtModeExec     00000001800315ac     real_time_test_sfun_registry.obj
 0002:000015b4       $unwind$mdlRTW             00000001800315b4     real_time_test_sfun_registry.obj
 0002:000015bc       $unwind$mdl_enable_processing 00000001800315bc     real_time_test_sfun_registry.obj
 0002:000015c4       $unwind$mdlEnable          00000001800315c4     real_time_test_sfun_registry.obj
 0002:000015cc       $unwind$mdl_disable_processing 00000001800315cc     real_time_test_sfun_registry.obj
 0002:000015d4       $unwind$mdlDisable         00000001800315d4     real_time_test_sfun_registry.obj
 0002:000015dc       $unwind$mdlOutputs         00000001800315dc     real_time_test_sfun_registry.obj
 0002:000015e4       $unwind$mdl_update_processing 00000001800315e4     real_time_test_sfun_registry.obj
 0002:000015ec       $unwind$mdlUpdate          00000001800315ec     real_time_test_sfun_registry.obj
 0002:000015f4       $unwind$ProcessMexSfunctionEveryCall 00000001800315f4     real_time_test_sfun_registry.obj
 0002:000015fc       $unwind$_RegNumInputPortsCB 00000001800315fc     real_time_test_sfun_registry.obj
 0002:00001604       $unwind$_RegNumOutputPortsCB 0000000180031604     real_time_test_sfun_registry.obj
 0002:0000160c       $unwind$_CreateSimStruct   000000018003160c     real_time_test_sfun_registry.obj
 0002:00001614       $unwind$_ProcessMexSfunctionCmdLineCall 0000000180031614     real_time_test_sfun_registry.obj
 0002:00001624       $unwind$ReportIndexOutOfBoundsError 0000000180031624     real_time_test_sfun_registry.obj
 0002:00001634       $unwind$getBitfieldFromFloat 0000000180031634     half_type.obj
 0002:0000163c       $unwind$getFloatFromBitfield 000000018003163c     half_type.obj
 0002:00001644       $unwind$getHalfFromBitfield 0000000180031644     half_type.obj
 0002:0000164c       $unwind$halfToFloat        000000018003164c     half_type.obj
 0002:00001654       $unwind$halfToDouble       0000000180031654     half_type.obj
 0002:0000165c       $unwind$floatToHalf        000000018003165c     half_type.obj
 0002:00001664       $unwind$doubleToHalf       0000000180031664     half_type.obj
 0002:0000166c       $unwind$__report_securityfailure 000000018003166c     MSVCRT:gs_report.obj
 0002:00001674       $unwind$__report_securityfailureEx 0000000180031674     MSVCRT:gs_report.obj
 0002:0000167c       $unwind$__report_rangecheckfailure 000000018003167c     MSVCRT:gs_report.obj
 0002:00001684       $unwind$__report_gsfailure 0000000180031684     MSVCRT:gs_report.obj
 0002:0000168c       $unwind$capture_current_context 000000018003168c     MSVCRT:gs_report.obj
 0002:00001698       $unwind$capture_previous_context 0000000180031698     MSVCRT:gs_report.obj
 0002:000016a4       $unwind$__raise_securityfailure 00000001800316a4     MSVCRT:gs_report.obj
 0002:000016ac       $unwind$__GSHandlerCheckCommon 00000001800316ac     MSVCRT:gshandler.obj
 0002:000016b4       $unwind$__GSHandlerCheck   00000001800316b4     MSVCRT:gshandler.obj
 0002:000016c0       $xdatasym                  00000001800316c0     MSVCRT:amdsecgs.obj
 0002:000016c8       $xdatasym                  00000001800316c8     MSVCRT:chkstk.obj
 0002:000016d0       $unwind$?dllmain_crt_process_attach@@YAHQEAUHINSTANCE__@@QEAX@Z 00000001800316d0     MSVCRT:dll_dllmain.obj
 0002:0000170c       $unwind$?fin$0@?0??dllmain_crt_process_attach@@YAHQEAUHINSTANCE__@@QEAX@Z@4HA 000000018003170c     MSVCRT:dll_dllmain.obj
 0002:00001714       $unwind$?dllmain_crt_process_detach@@YAH_N@Z 0000000180031714     MSVCRT:dll_dllmain.obj
 0002:00001768       $unwind$?fin$0@?0??dllmain_crt_process_detach@@YAH_N@Z@4HA 0000000180031768     MSVCRT:dll_dllmain.obj
 0002:00001770       $unwind$?fin$1@?0??dllmain_crt_process_detach@@YAH_N@Z@4HA 0000000180031770     MSVCRT:dll_dllmain.obj
 0002:00001778       $unwind$?dllmain_crt_dispatch@@YAHQEAUHINSTANCE__@@KQEAX@Z 0000000180031778     MSVCRT:dll_dllmain.obj
 0002:00001780       $unwind$?dllmain_dispatch@@YAHQEAUHINSTANCE__@@KQEAX@Z 0000000180031780     MSVCRT:dll_dllmain.obj
 0002:000017a8       $unwind$?filt$0@?0??dllmain_dispatch@@YAHQEAUHINSTANCE__@@KQEAX@Z@4HA 00000001800317a8     MSVCRT:dll_dllmain.obj
 0002:000017b0       $unwind$_DllMainCRTStartup 00000001800317b0     MSVCRT:dll_dllmain.obj
 0002:000017c0       $unwind$__security_init_cookie 00000001800317c0     MSVCRT:gs_support.obj
 0002:000017cc       $unwind$__get_entropy      00000001800317cc     MSVCRT:gs_support.obj
 0002:000017d4       $unwind$DllMain            00000001800317d4     MSVCRT:dll_dllmain_stub.obj
 0002:000017dc       $unwind$__scrt_initialize_default_local_stdio_options 00000001800317dc     MSVCRT:default_local_stdio_options.obj
 0002:000017e4       $unwind$atexit             00000001800317e4     MSVCRT:utility.obj
 0002:000017ec       $unwind$_onexit            00000001800317ec     MSVCRT:utility.obj
 0002:000017f4       $unwind$__scrt_is_nonwritable_in_current_image 00000001800317f4     MSVCRT:utility.obj
 0002:00001814       $unwind$__scrt_is_nonwritable_in_current_image$filt$0 0000000180031814     MSVCRT:utility.obj
 0002:0000181c       $unwind$__scrt_acquire_startup_lock 000000018003181c     MSVCRT:utility.obj
 0002:00001824       $unwind$__scrt_release_startup_lock 0000000180031824     MSVCRT:utility.obj
 0002:0000182c       $unwind$__scrt_initialize_crt 000000018003182c     MSVCRT:utility.obj
 0002:00001834       $unwind$__scrt_uninitialize_crt 0000000180031834     MSVCRT:utility.obj
 0002:0000183c       $unwind$__scrt_initialize_onexit_tables 000000018003183c     MSVCRT:utility.obj
 0002:00001844       $unwind$__scrt_dllmain_exception_filter 0000000180031844     MSVCRT:utility.obj
 0002:00001858       $unwind$__scrt_dllmain_before_initialize_c 0000000180031858     MSVCRT:utility.obj
 0002:00001860       $unwind$__scrt_dllmain_after_initialize_c 0000000180031860     MSVCRT:utility.obj
 0002:00001868       $unwind$__scrt_dllmain_uninitialize_c 0000000180031868     MSVCRT:utility.obj
 0002:00001870       $unwind$__scrt_dllmain_uninitialize_critical 0000000180031870     MSVCRT:utility.obj
 0002:00001878       $unwind$__scrt_dllmain_crt_thread_attach 0000000180031878     MSVCRT:utility.obj
 0002:00001880       $unwind$__scrt_dllmain_crt_thread_detach 0000000180031880     MSVCRT:utility.obj
 0002:00001888       $unwind$?configure_argv@__scrt_narrow_argv_policy@@SAHXZ 0000000180031888     MSVCRT:utility.obj
 0002:00001890       $unwind$__scrt_get_show_window_mode 0000000180031890     MSVCRT:utility_desktop.obj
 0002:00001898       $unwind$__scrt_is_managed_app 0000000180031898     MSVCRT:utility_desktop.obj
 0002:000018a0       $unwind$__scrt_fastfail    00000001800318a0     MSVCRT:utility_desktop.obj
 0002:000018b0       $unwind$__scrt_unhandled_exception_filter 00000001800318b0     MSVCRT:utility_desktop.obj
 0002:000018bc       $unwind$_RTC_Initialize    00000001800318bc     MSVCRT:initsect.obj
 0002:000018c8       $unwind$_RTC_Terminate     00000001800318c8     MSVCRT:initsect.obj
 0002:000018d4       $unwind$__castguard_check_failure_os_handled 00000001800318d4     MSVCRT:guard_support.obj
 0002:000018dc       $unwind$__castguard_slow_path_check_os_handled 00000001800318dc     MSVCRT:guard_support.obj
 0002:000018e4       $unwind$__isa_available_init 00000001800318e4     MSVCRT:cpu_disp.obj
 0002:000018f8       $xdatasym                  00000001800318f8     MSVCRT:guard_dispatch.obj
 0002:00001900       $xdatasym                  0000000180031900     MSVCRT:guard_xfg_dispatch.obj
 0002:00001910       .edata                     0000000180031910     real_time_test_sfun.exp
 0002:00001938       rgpv                       0000000180031938     real_time_test_sfun.exp
 0002:00001940       rgszName                   0000000180031940     real_time_test_sfun.exp
 0002:00001948       rgwOrd                     0000000180031948     real_time_test_sfun.exp
 0002:0000194c       szName                     000000018003194c     real_time_test_sfun.exp
 0002:00001967       $N00001                    0000000180031967     real_time_test_sfun.exp
 0002:00001973       $N00002                    0000000180031973     real_time_test_sfun.exp
 0002:0000205a       .idata$6                   000000018003205a     libmwippfilter:libmwippfilter.dll
 0002:00002086       .idata$6                   0000000180032086     libmwmorphop_binary_tbb:libmwmorphop_binary_tbb.dll
 0002:000020b8       .idata$6                   00000001800320b8     libmwrgb2gray_tbb:libmwrgb2gray_tbb.dll
 0002:000020dc       .idata$6                   00000001800320dc     libmwgetnumcores:libmwgetnumcores.dll
 0002:00002104       .idata$6                   0000000180032104     libmwimfilter:libmwimfilter.dll
 0002:0000212e       .idata$6                   000000018003212e     libmwippreconstruct:libmwippreconstruct.dll
 0002:00002570       .idata$6                   0000000180032570     sf_runtime:sf_runtime.dll
 0002:0000270a       .idata$6                   000000018003270a     libmx:libmx.dll
 0002:0000279e       .idata$6                   000000018003279e     libmex:libmex.dll
 0002:000027c0       .idata$6                   00000001800327c0     libut:libut.dll
 0002:00002862       .idata$6                   0000000180032862     libmwmathutil:libmwmathutil.dll
 0002:00002972       .idata$6                   0000000180032972     libemlrt:libemlrt.dll
 0002:00002a7a       .idata$6                   0000000180032a7a     libcovrt:libcovrt.dll
 0002:00002c14       .idata$6                   0000000180032c14     kernel32:KERNEL32.dll
 0002:00002ca2       .idata$6                   0000000180032ca2     vcruntime:VCRUNTIME140.dll
 0002:00002df0       .idata$6                   0000000180032df0     ucrt:api-ms-win-crt-string-l1-1-0.dll
 0002:00002e12       .idata$6                   0000000180032e12     ucrt:api-ms-win-crt-stdio-l1-1-0.dll
 0002:00002e32       .idata$6                   0000000180032e32     ucrt:api-ms-win-crt-heap-l1-1-0.dll
 0002:00002e52       .idata$6                   0000000180032e52     ucrt:api-ms-win-crt-runtime-l1-1-0.dll
 0003:00000000       $SG26403                   0000000180033000     real_time_test_sfun.obj
 0003:00000018       $SG26408                   0000000180033018     real_time_test_sfun.obj
 0003:00000020       $SG26411                   0000000180033020     real_time_test_sfun.obj
 0003:00000028       $SG26416                   0000000180033028     real_time_test_sfun.obj
 0003:00000030       $SG26446                   0000000180033030     real_time_test_sfun.obj
 0003:00000050       $SG26449                   0000000180033050     real_time_test_sfun.obj
 0003:00000068       $SG26478                   0000000180033068     real_time_test_sfun.obj
 0003:00000088       $SG26481                   0000000180033088     real_time_test_sfun.obj
 0003:000000a0       $SG26510                   00000001800330a0     real_time_test_sfun.obj
 0003:000000b8       $SG26513                   00000001800330b8     real_time_test_sfun.obj
 0003:000000d0       $SG26543                   00000001800330d0     real_time_test_sfun.obj
 0003:000000e8       $SG26546                   00000001800330e8     real_time_test_sfun.obj
 0003:00000100       $SG26575                   0000000180033100     real_time_test_sfun.obj
 0003:00000120       $SG26578                   0000000180033120     real_time_test_sfun.obj
 0003:00000138       $SG26604                   0000000180033138     real_time_test_sfun.obj
 0003:00000148       $SG26605                   0000000180033148     real_time_test_sfun.obj
 0003:00000160       $SG26334                   0000000180033160     c2_real_time_test.obj
 0003:00000170       $SG26335                   0000000180033170     c2_real_time_test.obj
 0003:000001cc       $SG26346                   00000001800331cc     c2_real_time_test.obj
 0003:000001d4       $SG26358                   00000001800331d4     c2_real_time_test.obj
 0003:000001d8       $SG26337                   00000001800331d8     c2_real_time_test.obj
 0003:000001f0       $SG26338                   00000001800331f0     c2_real_time_test.obj
 0003:00000250       $SG26340                   0000000180033250     c2_real_time_test.obj
 0003:00000258       $SG26343                   0000000180033258     c2_real_time_test.obj
 0003:00000278       $SG26349                   0000000180033278     c2_real_time_test.obj
 0003:00000290       $SG26341                   0000000180033290     c2_real_time_test.obj
 0003:000002d8       $SG26352                   00000001800332d8     c2_real_time_test.obj
 0003:000002f0       $SG26344                   00000001800332f0     c2_real_time_test.obj
 0003:00000350       $SG26347                   0000000180033350     c2_real_time_test.obj
 0003:00000398       $SG26355                   0000000180033398     c2_real_time_test.obj
 0003:000003a0       $SG26350                   00000001800333a0     c2_real_time_test.obj
 0003:000003f8       $SG26361                   00000001800333f8     c2_real_time_test.obj
 0003:00000408       $SG26364                   0000000180033408     c2_real_time_test.obj
 0003:00000410       $SG26353                   0000000180033410     c2_real_time_test.obj
 0003:00000468       $SG26367                   0000000180033468     c2_real_time_test.obj
 0003:00000478       $SG26370                   0000000180033478     c2_real_time_test.obj
 0003:00000488       $SG26373                   0000000180033488     c2_real_time_test.obj
 0003:000004a0       $SG26356                   00000001800334a0     c2_real_time_test.obj
 0003:000004e8       $SG26379                   00000001800334e8     c2_real_time_test.obj
 0003:000004f0       $SG26359                   00000001800334f0     c2_real_time_test.obj
 0003:00000538       $SG26382                   0000000180033538     c2_real_time_test.obj
 0003:00000540       $SG26362                   0000000180033540     c2_real_time_test.obj
 0003:00000590       $SG26365                   0000000180033590     c2_real_time_test.obj
 0003:000005d8       $SG26376                   00000001800335d8     c2_real_time_test.obj
 0003:000005e8       $SG26385                   00000001800335e8     c2_real_time_test.obj
 0003:000005f0       $SG26368                   00000001800335f0     c2_real_time_test.obj
 0003:00000640       $SG26371                   0000000180033640     c2_real_time_test.obj
 0003:00000698       $SG26388                   0000000180033698     c2_real_time_test.obj
 0003:000006b0       $SG26374                   00000001800336b0     c2_real_time_test.obj
 0003:00000708       $SG26394                   0000000180033708     c2_real_time_test.obj
 0003:00000718       $SG26395                   0000000180033718     c2_real_time_test.obj
 0003:00000730       $SG26377                   0000000180033730     c2_real_time_test.obj
 0003:00000780       $SG26380                   0000000180033780     c2_real_time_test.obj
 0003:000007d0       $SG26383                   00000001800337d0     c2_real_time_test.obj
 0003:00000818       $SG26391                   0000000180033818     c2_real_time_test.obj
 0003:00000838       $SG26397                   0000000180033838     c2_real_time_test.obj
 0003:00000848       $SG26398                   0000000180033848     c2_real_time_test.obj
 0003:00000860       $SG26386                   0000000180033860     c2_real_time_test.obj
 0003:000008a8       $SG26400                   00000001800338a8     c2_real_time_test.obj
 0003:000008b8       $SG26401                   00000001800338b8     c2_real_time_test.obj
 0003:000008d0       $SG26389                   00000001800338d0     c2_real_time_test.obj
 0003:00000930       $SG26392                   0000000180033930     c2_real_time_test.obj
 0003:00000990       $SG26403                   0000000180033990     c2_real_time_test.obj
 0003:000009a0       $SG26404                   00000001800339a0     c2_real_time_test.obj
 0003:000009b4       $SG26454                   00000001800339b4     c2_real_time_test.obj
 0003:000009bc       $SG26547                   00000001800339bc     c2_real_time_test.obj
 0003:000009c0       $SG26406                   00000001800339c0     c2_real_time_test.obj
 0003:000009d0       $SG26407                   00000001800339d0     c2_real_time_test.obj
 0003:000009e4       $SG26457                   00000001800339e4     c2_real_time_test.obj
 0003:000009ec       $SG26670                   00000001800339ec     c2_real_time_test.obj
 0003:000009f0       $SG26409                   00000001800339f0     c2_real_time_test.obj
 0003:00000a00       $SG26410                   0000000180033a00     c2_real_time_test.obj
 0003:00000a14       $SG26460                   0000000180033a14     c2_real_time_test.obj
 0003:00000a1c       $SG26673                   0000000180033a1c     c2_real_time_test.obj
 0003:00000a20       $SG26412                   0000000180033a20     c2_real_time_test.obj
 0003:00000a30       $SG26413                   0000000180033a30     c2_real_time_test.obj
 0003:00000a44       $SG26475                   0000000180033a44     c2_real_time_test.obj
 0003:00000a4c       $SG26676                   0000000180033a4c     c2_real_time_test.obj
 0003:00000a50       $SG26415                   0000000180033a50     c2_real_time_test.obj
 0003:00000a60       $SG26416                   0000000180033a60     c2_real_time_test.obj
 0003:00000a74       $SG26589                   0000000180033a74     c2_real_time_test.obj
 0003:00000a7c       $SG26697                   0000000180033a7c     c2_real_time_test.obj
 0003:00000a80       $SG26418                   0000000180033a80     c2_real_time_test.obj
 0003:00000a90       $SG26419                   0000000180033a90     c2_real_time_test.obj
 0003:00000aa4       $SG26613                   0000000180033aa4     c2_real_time_test.obj
 0003:00000aac       $SG26772                   0000000180033aac     c2_real_time_test.obj
 0003:00000ab0       $SG26421                   0000000180033ab0     c2_real_time_test.obj
 0003:00000ac0       $SG26422                   0000000180033ac0     c2_real_time_test.obj
 0003:00000ad4       $SG26742                   0000000180033ad4     c2_real_time_test.obj
 0003:00000adc       $SG27399                   0000000180033adc     c2_real_time_test.obj
 0003:00000ae0       $SG26424                   0000000180033ae0     c2_real_time_test.obj
 0003:00000af0       $SG26425                   0000000180033af0     c2_real_time_test.obj
 0003:00000b38       $SG26427                   0000000180033b38     c2_real_time_test.obj
 0003:00000b44       $SG26478                   0000000180033b44     c2_real_time_test.obj
 0003:00000b50       $SG26428                   0000000180033b50     c2_real_time_test.obj
 0003:00000b98       $SG26430                   0000000180033b98     c2_real_time_test.obj
 0003:00000ba4       $SG26592                   0000000180033ba4     c2_real_time_test.obj
 0003:00000bb0       $SG26431                   0000000180033bb0     c2_real_time_test.obj
 0003:00000bf8       $SG26433                   0000000180033bf8     c2_real_time_test.obj
 0003:00000c08       $SG26448                   0000000180033c08     c2_real_time_test.obj
 0003:00000c18       $SG26463                   0000000180033c18     c2_real_time_test.obj
 0003:00000c20       $SG26434                   0000000180033c20     c2_real_time_test.obj
 0003:00000c64       $SG27402                   0000000180033c64     c2_real_time_test.obj
 0003:00000c68       $SG26436                   0000000180033c68     c2_real_time_test.obj
 0003:00000c78       $SG26451                   0000000180033c78     c2_real_time_test.obj
 0003:00000c88       $SG26472                   0000000180033c88     c2_real_time_test.obj
 0003:00000ca0       $SG26437                   0000000180033ca0     c2_real_time_test.obj
 0003:00000ce4       $SG27411                   0000000180033ce4     c2_real_time_test.obj
 0003:00000ce8       $SG26439                   0000000180033ce8     c2_real_time_test.obj
 0003:00000cf8       $SG26466                   0000000180033cf8     c2_real_time_test.obj
 0003:00000d08       $SG26481                   0000000180033d08     c2_real_time_test.obj
 0003:00000d14       $SG26598                   0000000180033d14     c2_real_time_test.obj
 0003:00000d20       $SG26440                   0000000180033d20     c2_real_time_test.obj
 0003:00000d64       $SG27417                   0000000180033d64     c2_real_time_test.obj
 0003:00000d68       $SG26442                   0000000180033d68     c2_real_time_test.obj
 0003:00000d78       $SG26469                   0000000180033d78     c2_real_time_test.obj
 0003:00000d88       $SG26484                   0000000180033d88     c2_real_time_test.obj
 0003:00000d94       $SG26601                   0000000180033d94     c2_real_time_test.obj
 0003:00000da0       $SG26443                   0000000180033da0     c2_real_time_test.obj
 0003:00000de4       $SG27421                   0000000180033de4     c2_real_time_test.obj
 0003:00000de8       $SG26445                   0000000180033de8     c2_real_time_test.obj
 0003:00000df8       $SG26487                   0000000180033df8     c2_real_time_test.obj
 0003:00000e04       $SG26604                   0000000180033e04     c2_real_time_test.obj
 0003:00000e10       $SG26446                   0000000180033e10     c2_real_time_test.obj
 0003:00000e54       $SG26706                   0000000180033e54     c2_real_time_test.obj
 0003:00000e60       $SG26449                   0000000180033e60     c2_real_time_test.obj
 0003:00000ea8       $SG26529                   0000000180033ea8     c2_real_time_test.obj
 0003:00000ec0       $SG26452                   0000000180033ec0     c2_real_time_test.obj
 0003:00000f08       $SG26532                   0000000180033f08     c2_real_time_test.obj
 0003:00000f20       $SG26455                   0000000180033f20     c2_real_time_test.obj
 0003:00000f68       $SG26490                   0000000180033f68     c2_real_time_test.obj
 0003:00000f74       $SG26709                   0000000180033f74     c2_real_time_test.obj
 0003:00000f80       $SG26458                   0000000180033f80     c2_real_time_test.obj
 0003:00000fc8       $SG26493                   0000000180033fc8     c2_real_time_test.obj
 0003:00000fd4       $SG26712                   0000000180033fd4     c2_real_time_test.obj
 0003:00000fe0       $SG26461                   0000000180033fe0     c2_real_time_test.obj
 0003:00001028       $SG26496                   0000000180034028     c2_real_time_test.obj
 0003:00001034       $SG26715                   0000000180034034     c2_real_time_test.obj
 0003:00001040       $SG26464                   0000000180034040     c2_real_time_test.obj
 0003:000010a0       $SG26467                   00000001800340a0     c2_real_time_test.obj
 0003:000010e8       $SG26535                   00000001800340e8     c2_real_time_test.obj
 0003:00001100       $SG26470                   0000000180034100     c2_real_time_test.obj
 0003:00001148       $SG26538                   0000000180034148     c2_real_time_test.obj
 0003:00001160       $SG26473                   0000000180034160     c2_real_time_test.obj
 0003:000011b0       $SG26476                   00000001800341b0     c2_real_time_test.obj
 0003:000011f8       $SG26499                   00000001800341f8     c2_real_time_test.obj
 0003:00001204       $SG26745                   0000000180034204     c2_real_time_test.obj
 0003:00001210       $SG26479                   0000000180034210     c2_real_time_test.obj
 0003:00001258       $SG26502                   0000000180034258     c2_real_time_test.obj
 0003:00001264       $SG26748                   0000000180034264     c2_real_time_test.obj
 0003:00001270       $SG26482                   0000000180034270     c2_real_time_test.obj
 0003:000012b8       $SG26541                   00000001800342b8     c2_real_time_test.obj
 0003:000012d0       $SG26485                   00000001800342d0     c2_real_time_test.obj
 0003:00001318       $SG26550                   0000000180034318     c2_real_time_test.obj
 0003:00001320       $SG26488                   0000000180034320     c2_real_time_test.obj
 0003:00001368       $SG26553                   0000000180034368     c2_real_time_test.obj
 0003:00001380       $SG26491                   0000000180034380     c2_real_time_test.obj
 0003:000013c8       $SG26556                   00000001800343c8     c2_real_time_test.obj
 0003:000013e0       $SG26494                   00000001800343e0     c2_real_time_test.obj
 0003:00001428       $SG26559                   0000000180034428     c2_real_time_test.obj
 0003:00001440       $SG26497                   0000000180034440     c2_real_time_test.obj
 0003:00001488       $SG26562                   0000000180034488     c2_real_time_test.obj
 0003:000014a0       $SG26500                   00000001800344a0     c2_real_time_test.obj
 0003:000014e8       $SG26565                   00000001800344e8     c2_real_time_test.obj
 0003:00001500       $SG26503                   0000000180034500     c2_real_time_test.obj
 0003:00001548       $SG26505                   0000000180034548     c2_real_time_test.obj
 0003:00001554       $SG26751                   0000000180034554     c2_real_time_test.obj
 0003:00001560       $SG26506                   0000000180034560     c2_real_time_test.obj
 0003:000015a8       $SG26508                   00000001800345a8     c2_real_time_test.obj
 0003:000015b8       $SG26544                   00000001800345b8     c2_real_time_test.obj
 0003:000015d8       $SG26568                   00000001800345d8     c2_real_time_test.obj
 0003:000015f0       $SG26509                   00000001800345f0     c2_real_time_test.obj
 0003:00001638       $SG26511                   0000000180034638     c2_real_time_test.obj
 0003:00001648       $SG26571                   0000000180034648     c2_real_time_test.obj
 0003:00001660       $SG26512                   0000000180034660     c2_real_time_test.obj
 0003:000016a8       $SG26514                   00000001800346a8     c2_real_time_test.obj
 0003:000016b8       $SG26574                   00000001800346b8     c2_real_time_test.obj
 0003:000016d0       $SG26515                   00000001800346d0     c2_real_time_test.obj
 0003:00001718       $SG26517                   0000000180034718     c2_real_time_test.obj
 0003:00001728       $SG26577                   0000000180034728     c2_real_time_test.obj
 0003:00001740       $SG26518                   0000000180034740     c2_real_time_test.obj
 0003:00001788       $SG26520                   0000000180034788     c2_real_time_test.obj
 0003:00001798       $SG26580                   0000000180034798     c2_real_time_test.obj
 0003:000017b0       $SG26521                   00000001800347b0     c2_real_time_test.obj
 0003:000017f8       $SG26523                   00000001800347f8     c2_real_time_test.obj
 0003:00001808       $SG26583                   0000000180034808     c2_real_time_test.obj
 0003:00001820       $SG26524                   0000000180034820     c2_real_time_test.obj
 0003:00001868       $SG26526                   0000000180034868     c2_real_time_test.obj
 0003:00001878       $SG26586                   0000000180034878     c2_real_time_test.obj
 0003:00001890       $SG26527                   0000000180034890     c2_real_time_test.obj
 0003:000018d8       $SG26595                   00000001800348d8     c2_real_time_test.obj
 0003:000018e8       $SG26667                   00000001800348e8     c2_real_time_test.obj
 0003:000018f0       $SG26530                   00000001800348f0     c2_real_time_test.obj
 0003:00001958       $SG26724                   0000000180034958     c2_real_time_test.obj
 0003:00001970       $SG26533                   0000000180034970     c2_real_time_test.obj
 0003:000019d8       $SG26727                   00000001800349d8     c2_real_time_test.obj
 0003:000019f0       $SG26536                   00000001800349f0     c2_real_time_test.obj
 0003:00001a58       $SG26730                   0000000180034a58     c2_real_time_test.obj
 0003:00001a70       $SG26539                   0000000180034a70     c2_real_time_test.obj
 0003:00001ad8       $SG26733                   0000000180034ad8     c2_real_time_test.obj
 0003:00001af0       $SG26542                   0000000180034af0     c2_real_time_test.obj
 0003:00001b58       $SG26754                   0000000180034b58     c2_real_time_test.obj
 0003:00001b60       $SG26545                   0000000180034b60     c2_real_time_test.obj
 0003:00001bc0       $SG26548                   0000000180034bc0     c2_real_time_test.obj
 0003:00001c04       $SG26793                   0000000180034c04     c2_real_time_test.obj
 0003:00001c10       $SG26551                   0000000180034c10     c2_real_time_test.obj
 0003:00001c60       $SG26554                   0000000180034c60     c2_real_time_test.obj
 0003:00001cc0       $SG26557                   0000000180034cc0     c2_real_time_test.obj
 0003:00001d20       $SG26560                   0000000180034d20     c2_real_time_test.obj
 0003:00001d80       $SG26563                   0000000180034d80     c2_real_time_test.obj
 0003:00001de0       $SG26566                   0000000180034de0     c2_real_time_test.obj
 0003:00001e40       $SG26569                   0000000180034e40     c2_real_time_test.obj
 0003:00001ea0       $SG26572                   0000000180034ea0     c2_real_time_test.obj
 0003:00001f00       $SG26575                   0000000180034f00     c2_real_time_test.obj
 0003:00001f60       $SG26578                   0000000180034f60     c2_real_time_test.obj
 0003:00001fc0       $SG26581                   0000000180034fc0     c2_real_time_test.obj
 0003:00002020       $SG26584                   0000000180035020     c2_real_time_test.obj
 0003:00002080       $SG26587                   0000000180035080     c2_real_time_test.obj
 0003:000020e0       $SG26590                   00000001800350e0     c2_real_time_test.obj
 0003:00002128       $SG26775                   0000000180035128     c2_real_time_test.obj
 0003:00002140       $SG26593                   0000000180035140     c2_real_time_test.obj
 0003:00002190       $SG26596                   0000000180035190     c2_real_time_test.obj
 0003:000021e8       $SG26607                   00000001800351e8     c2_real_time_test.obj
 0003:000021f4       $SG26895                   00000001800351f4     c2_real_time_test.obj
 0003:00002200       $SG26599                   0000000180035200     c2_real_time_test.obj
 0003:00002250       $SG26602                   0000000180035250     c2_real_time_test.obj
 0003:000022a0       $SG26605                   00000001800352a0     c2_real_time_test.obj
 0003:000022f0       $SG26608                   00000001800352f0     c2_real_time_test.obj
 0003:00002338       $SG26610                   0000000180035338     c2_real_time_test.obj
 0003:00002344       $SG26898                   0000000180035344     c2_real_time_test.obj
 0003:00002350       $SG26611                   0000000180035350     c2_real_time_test.obj
 0003:00002398       $SG26778                   0000000180035398     c2_real_time_test.obj
 0003:000023b0       $SG26614                   00000001800353b0     c2_real_time_test.obj
 0003:000023f8       $SG26616                   00000001800353f8     c2_real_time_test.obj
 0003:00002404       $SG27186                   0000000180035404     c2_real_time_test.obj
 0003:00002410       $SG26617                   0000000180035410     c2_real_time_test.obj
 0003:00002458       $SG26619                   0000000180035458     c2_real_time_test.obj
 0003:00002464       $SG27198                   0000000180035464     c2_real_time_test.obj
 0003:00002470       $SG26620                   0000000180035470     c2_real_time_test.obj
 0003:000024b8       $SG26622                   00000001800354b8     c2_real_time_test.obj
 0003:000024c4       $SG27425                   00000001800354c4     c2_real_time_test.obj
 0003:000024c8       $SG26802                   00000001800354c8     c2_real_time_test.obj
 0003:000024d0       $SG26623                   00000001800354d0     c2_real_time_test.obj
 0003:00002518       $SG26625                   0000000180035518     c2_real_time_test.obj
 0003:00002524       $SG27429                   0000000180035524     c2_real_time_test.obj
 0003:00002530       $SG26626                   0000000180035530     c2_real_time_test.obj
 0003:00002578       $SG26628                   0000000180035578     c2_real_time_test.obj
 0003:00002584       $SG27436                   0000000180035584     c2_real_time_test.obj
 0003:00002590       $SG26629                   0000000180035590     c2_real_time_test.obj
 0003:000025d8       $SG26631                   00000001800355d8     c2_real_time_test.obj
 0003:000025e4       $SG27440                   00000001800355e4     c2_real_time_test.obj
 0003:000025e8       $SG26803                   00000001800355e8     c2_real_time_test.obj
 0003:00002628       $SG26805                   0000000180035628     c2_real_time_test.obj
 0003:00002630       $SG26632                   0000000180035630     c2_real_time_test.obj
 0003:00002678       $SG26634                   0000000180035678     c2_real_time_test.obj
 0003:00002684       $SG27444                   0000000180035684     c2_real_time_test.obj
 0003:00002688       $SG26806                   0000000180035688     c2_real_time_test.obj
 0003:000026c8       $SG26808                   00000001800356c8     c2_real_time_test.obj
 0003:000026d0       $SG26635                   00000001800356d0     c2_real_time_test.obj
 0003:00002718       $SG26637                   0000000180035718     c2_real_time_test.obj
 0003:00002724       $SG27448                   0000000180035724     c2_real_time_test.obj
 0003:00002728       $SG26809                   0000000180035728     c2_real_time_test.obj
 0003:00002768       $SG27009                   0000000180035768     c2_real_time_test.obj
 0003:00002770       $SG26638                   0000000180035770     c2_real_time_test.obj
 0003:000027b8       $SG26640                   00000001800357b8     c2_real_time_test.obj
 0003:000027c4       $SG27453                   00000001800357c4     c2_real_time_test.obj
 0003:000027d0       $SG26641                   00000001800357d0     c2_real_time_test.obj
 0003:00002818       $SG26643                   0000000180035818     c2_real_time_test.obj
 0003:00002824       $SG27457                   0000000180035824     c2_real_time_test.obj
 0003:00002830       $SG26644                   0000000180035830     c2_real_time_test.obj
 0003:00002878       $SG26646                   0000000180035878     c2_real_time_test.obj
 0003:00002884       $SG27461                   0000000180035884     c2_real_time_test.obj
 0003:00002890       $SG26647                   0000000180035890     c2_real_time_test.obj
 0003:000028d8       $SG26649                   00000001800358d8     c2_real_time_test.obj
 0003:000028e4       $SG27465                   00000001800358e4     c2_real_time_test.obj
 0003:000028f0       $SG26650                   00000001800358f0     c2_real_time_test.obj
 0003:00002938       $SG26652                   0000000180035938     c2_real_time_test.obj
 0003:00002950       $SG26653                   0000000180035950     c2_real_time_test.obj
 0003:00002998       $SG26655                   0000000180035998     c2_real_time_test.obj
 0003:000029a8       $SG26685                   00000001800359a8     c2_real_time_test.obj
 0003:000029b8       $SG27010                   00000001800359b8     c2_real_time_test.obj
 0003:000029f8       $SG27012                   00000001800359f8     c2_real_time_test.obj
 0003:00002a00       $SG26656                   0000000180035a00     c2_real_time_test.obj
 0003:00002a48       $SG26658                   0000000180035a48     c2_real_time_test.obj
 0003:00002a58       $SG26688                   0000000180035a58     c2_real_time_test.obj
 0003:00002a68       $SG27015                   0000000180035a68     c2_real_time_test.obj
 0003:00002a70       $SG26659                   0000000180035a70     c2_real_time_test.obj
 0003:00002ab8       $SG26661                   0000000180035ab8     c2_real_time_test.obj
 0003:00002ac8       $SG26691                   0000000180035ac8     c2_real_time_test.obj
 0003:00002ad8       $SG27042                   0000000180035ad8     c2_real_time_test.obj
 0003:00002ae0       $SG26662                   0000000180035ae0     c2_real_time_test.obj
 0003:00002b28       $SG26664                   0000000180035b28     c2_real_time_test.obj
 0003:00002b38       $SG26694                   0000000180035b38     c2_real_time_test.obj
 0003:00002b48       $SG27045                   0000000180035b48     c2_real_time_test.obj
 0003:00002b50       $SG26665                   0000000180035b50     c2_real_time_test.obj
 0003:00002b98       $SG27048                   0000000180035b98     c2_real_time_test.obj
 0003:00002ba0       $SG26668                   0000000180035ba0     c2_real_time_test.obj
 0003:00002be8       $SG27051                   0000000180035be8     c2_real_time_test.obj
 0003:00002bf0       $SG26671                   0000000180035bf0     c2_real_time_test.obj
 0003:00002c38       $SG27054                   0000000180035c38     c2_real_time_test.obj
 0003:00002c40       $SG26674                   0000000180035c40     c2_real_time_test.obj
 0003:00002c88       $SG27057                   0000000180035c88     c2_real_time_test.obj
 0003:00002c90       $SG26677                   0000000180035c90     c2_real_time_test.obj
 0003:00002cd8       $SG26679                   0000000180035cd8     c2_real_time_test.obj
 0003:00002ce8       $SG26718                   0000000180035ce8     c2_real_time_test.obj
 0003:00002cf8       $SG27060                   0000000180035cf8     c2_real_time_test.obj
 0003:00002d00       $SG26680                   0000000180035d00     c2_real_time_test.obj
 0003:00002d50       $SG26682                   0000000180035d50     c2_real_time_test.obj
 0003:00002d60       $SG26683                   0000000180035d60     c2_real_time_test.obj
 0003:00002db0       $SG26686                   0000000180035db0     c2_real_time_test.obj
 0003:00002e00       $SG26689                   0000000180035e00     c2_real_time_test.obj
 0003:00002e50       $SG26692                   0000000180035e50     c2_real_time_test.obj
 0003:00002ea0       $SG26695                   0000000180035ea0     c2_real_time_test.obj
 0003:00002ef0       $SG26698                   0000000180035ef0     c2_real_time_test.obj
 0003:00002f38       $SG26700                   0000000180035f38     c2_real_time_test.obj
 0003:00002f48       $SG26721                   0000000180035f48     c2_real_time_test.obj
 0003:00002f58       $SG27063                   0000000180035f58     c2_real_time_test.obj
 0003:00002f60       $SG26701                   0000000180035f60     c2_real_time_test.obj
 0003:00002fb0       $SG26703                   0000000180035fb0     c2_real_time_test.obj
 0003:00002fc0       $SG26704                   0000000180035fc0     c2_real_time_test.obj
 0003:00003010       $SG26707                   0000000180036010     c2_real_time_test.obj
 0003:00003058       $SG26736                   0000000180036058     c2_real_time_test.obj
 0003:00003068       $SG27066                   0000000180036068     c2_real_time_test.obj
 0003:00003070       $SG26710                   0000000180036070     c2_real_time_test.obj
 0003:000030b8       $SG26739                   00000001800360b8     c2_real_time_test.obj
 0003:000030c8       $SG27069                   00000001800360c8     c2_real_time_test.obj
 0003:000030d0       $SG26713                   00000001800360d0     c2_real_time_test.obj
 0003:00003118       $SG26769                   0000000180036118     c2_real_time_test.obj
 0003:00003128       $SG27072                   0000000180036128     c2_real_time_test.obj
 0003:00003130       $SG26716                   0000000180036130     c2_real_time_test.obj
 0003:00003178       $SG26781                   0000000180036178     c2_real_time_test.obj
 0003:00003188       $SG27024                   0000000180036188     c2_real_time_test.obj
 0003:00003198       $SG27075                   0000000180036198     c2_real_time_test.obj
 0003:000031a0       $SG26719                   00000001800361a0     c2_real_time_test.obj
 0003:000031f0       $SG26722                   00000001800361f0     c2_real_time_test.obj
 0003:00003240       $SG26725                   0000000180036240     c2_real_time_test.obj
 0003:00003298       $SG27078                   0000000180036298     c2_real_time_test.obj
 0003:000032a0       $SG26728                   00000001800362a0     c2_real_time_test.obj
 0003:000032f8       $SG27081                   00000001800362f8     c2_real_time_test.obj
 0003:00003300       $SG26731                   0000000180036300     c2_real_time_test.obj
 0003:00003358       $SG27150                   0000000180036358     c2_real_time_test.obj
 0003:00003360       $SG26734                   0000000180036360     c2_real_time_test.obj
 0003:000033b8       $SG27153                   00000001800363b8     c2_real_time_test.obj
 0003:000033c0       $SG26737                   00000001800363c0     c2_real_time_test.obj
 0003:00003410       $SG26740                   0000000180036410     c2_real_time_test.obj
 0003:00003460       $SG26743                   0000000180036460     c2_real_time_test.obj
 0003:000034a8       $SG26784                   00000001800364a8     c2_real_time_test.obj
 0003:000034b8       $SG27027                   00000001800364b8     c2_real_time_test.obj
 0003:000034c8       $SG27084                   00000001800364c8     c2_real_time_test.obj
 0003:000034d8       $SG27156                   00000001800364d8     c2_real_time_test.obj
 0003:000034e0       $SG26746                   00000001800364e0     c2_real_time_test.obj
 0003:00003528       $SG26787                   0000000180036528     c2_real_time_test.obj
 0003:00003538       $SG27030                   0000000180036538     c2_real_time_test.obj
 0003:00003548       $SG27087                   0000000180036548     c2_real_time_test.obj
 0003:00003558       $SG27159                   0000000180036558     c2_real_time_test.obj
 0003:00003560       $SG26749                   0000000180036560     c2_real_time_test.obj
 0003:000035a8       $SG26790                   00000001800365a8     c2_real_time_test.obj
 0003:000035b8       $SG27033                   00000001800365b8     c2_real_time_test.obj
 0003:000035c8       $SG27090                   00000001800365c8     c2_real_time_test.obj
 0003:000035d8       $SG27162                   00000001800365d8     c2_real_time_test.obj
 0003:000035f0       $SG26752                   00000001800365f0     c2_real_time_test.obj
 0003:00003638       $SG26796                   0000000180036638     c2_real_time_test.obj
 0003:00003648       $SG27036                   0000000180036648     c2_real_time_test.obj
 0003:00003658       $SG27093                   0000000180036658     c2_real_time_test.obj
 0003:00003668       $SG27168                   0000000180036668     c2_real_time_test.obj
 0003:00003678       $SG27169                   0000000180036678     c2_real_time_test.obj
 0003:00003690       $SG26755                   0000000180036690     c2_real_time_test.obj
 0003:000036d8       $SG26757                   00000001800366d8     c2_real_time_test.obj
 0003:000036e8       $SG26799                   00000001800366e8     c2_real_time_test.obj
 0003:000036f8       $SG27039                   00000001800366f8     c2_real_time_test.obj
 0003:00003708       $SG27096                   0000000180036708     c2_real_time_test.obj
 0003:00003718       $SG27171                   0000000180036718     c2_real_time_test.obj
 0003:00003728       $SG27172                   0000000180036728     c2_real_time_test.obj
 0003:00003740       $SG26758                   0000000180036740     c2_real_time_test.obj
 0003:00003788       $SG26760                   0000000180036788     c2_real_time_test.obj
 0003:00003798       $SG26814                   0000000180036798     c2_real_time_test.obj
 0003:000037a8       $SG27099                   00000001800367a8     c2_real_time_test.obj
 0003:000037b8       $SG27174                   00000001800367b8     c2_real_time_test.obj
 0003:000037c8       $SG27175                   00000001800367c8     c2_real_time_test.obj
 0003:000037e0       $SG26761                   00000001800367e0     c2_real_time_test.obj
 0003:00003828       $SG26763                   0000000180036828     c2_real_time_test.obj
 0003:00003838       $SG26817                   0000000180036838     c2_real_time_test.obj
 0003:00003848       $SG27102                   0000000180036848     c2_real_time_test.obj
 0003:00003858       $SG27177                   0000000180036858     c2_real_time_test.obj
 0003:00003868       $SG27178                   0000000180036868     c2_real_time_test.obj
 0003:00003880       $SG26764                   0000000180036880     c2_real_time_test.obj
 0003:000038c8       $SG26766                   00000001800368c8     c2_real_time_test.obj
 0003:000038d8       $SG26820                   00000001800368d8     c2_real_time_test.obj
 0003:000038e8       $SG27105                   00000001800368e8     c2_real_time_test.obj
 0003:000038f8       $SG27180                   00000001800368f8     c2_real_time_test.obj
 0003:00003908       $SG27181                   0000000180036908     c2_real_time_test.obj
 0003:00003920       $SG26767                   0000000180036920     c2_real_time_test.obj
 0003:00003968       $SG27108                   0000000180036968     c2_real_time_test.obj
 0003:00003978       $SG27183                   0000000180036978     c2_real_time_test.obj
 0003:00003988       $SG27184                   0000000180036988     c2_real_time_test.obj
 0003:000039a0       $SG26770                   00000001800369a0     c2_real_time_test.obj
 0003:000039f0       $SG26773                   00000001800369f0     c2_real_time_test.obj
 0003:00003a38       $SG27111                   0000000180036a38     c2_real_time_test.obj
 0003:00003a48       $SG27216                   0000000180036a48     c2_real_time_test.obj
 0003:00003a60       $SG26776                   0000000180036a60     c2_real_time_test.obj
 0003:00003ac0       $SG26779                   0000000180036ac0     c2_real_time_test.obj
 0003:00003b20       $SG26782                   0000000180036b20     c2_real_time_test.obj
 0003:00003b68       $SG27219                   0000000180036b68     c2_real_time_test.obj
 0003:00003b80       $SG26785                   0000000180036b80     c2_real_time_test.obj
 0003:00003bc8       $SG27225                   0000000180036bc8     c2_real_time_test.obj
 0003:00003be0       $SG26788                   0000000180036be0     c2_real_time_test.obj
 0003:00003c28       $SG27228                   0000000180036c28     c2_real_time_test.obj
 0003:00003c40       $SG26791                   0000000180036c40     c2_real_time_test.obj
 0003:00003c88       $SG27249                   0000000180036c88     c2_real_time_test.obj
 0003:00003ca0       $SG26794                   0000000180036ca0     c2_real_time_test.obj
 0003:00003ce8       $SG27114                   0000000180036ce8     c2_real_time_test.obj
 0003:00003cf8       $SG27252                   0000000180036cf8     c2_real_time_test.obj
 0003:00003d10       $SG26797                   0000000180036d10     c2_real_time_test.obj
 0003:00003d58       $SG27255                   0000000180036d58     c2_real_time_test.obj
 0003:00003d70       $SG26800                   0000000180036d70     c2_real_time_test.obj
 0003:00003db8       $SG26811                   0000000180036db8     c2_real_time_test.obj
 0003:00003dc8       $SG26823                   0000000180036dc8     c2_real_time_test.obj
 0003:00003dd8       $SG27117                   0000000180036dd8     c2_real_time_test.obj
 0003:00003de8       $SG27258                   0000000180036de8     c2_real_time_test.obj
 0003:00003e00       $SG26812                   0000000180036e00     c2_real_time_test.obj
 0003:00003e48       $SG27120                   0000000180036e48     c2_real_time_test.obj
 0003:00003e58       $SG27294                   0000000180036e58     c2_real_time_test.obj
 0003:00003e70       $SG26815                   0000000180036e70     c2_real_time_test.obj
 0003:00003eb8       $SG27297                   0000000180036eb8     c2_real_time_test.obj
 0003:00003ed0       $SG26818                   0000000180036ed0     c2_real_time_test.obj
 0003:00003f18       $SG27300                   0000000180036f18     c2_real_time_test.obj
 0003:00003f30       $SG26821                   0000000180036f30     c2_real_time_test.obj
 0003:00003f78       $SG27375                   0000000180036f78     c2_real_time_test.obj
 0003:00003f80       $SG26824                   0000000180036f80     c2_real_time_test.obj
 0003:00003fc8       $SG26826                   0000000180036fc8     c2_real_time_test.obj
 0003:00003fd8       $SG27123                   0000000180036fd8     c2_real_time_test.obj
 0003:00003fe8       $SG27378                   0000000180036fe8     c2_real_time_test.obj
 0003:00003ff0       $SG26827                   0000000180036ff0     c2_real_time_test.obj
 0003:00004038       $SG26829                   0000000180037038     c2_real_time_test.obj
 0003:00004048       $SG27126                   0000000180037048     c2_real_time_test.obj
 0003:00004058       $SG27138                   0000000180037058     c2_real_time_test.obj
 0003:00004068       $SG27303                   0000000180037068     c2_real_time_test.obj
 0003:00004078       $SG27381                   0000000180037078     c2_real_time_test.obj
 0003:00004080       $SG26830                   0000000180037080     c2_real_time_test.obj
 0003:000040c8       $SG26832                   00000001800370c8     c2_real_time_test.obj
 0003:000040d8       $SG27129                   00000001800370d8     c2_real_time_test.obj
 0003:000040e8       $SG27141                   00000001800370e8     c2_real_time_test.obj
 0003:000040f8       $SG27321                   00000001800370f8     c2_real_time_test.obj
 0003:00004108       $SG27384                   0000000180037108     c2_real_time_test.obj
 0003:00004110       $SG26833                   0000000180037110     c2_real_time_test.obj
 0003:00004158       $SG26835                   0000000180037158     c2_real_time_test.obj
 0003:00004168       $SG27132                   0000000180037168     c2_real_time_test.obj
 0003:00004178       $SG27144                   0000000180037178     c2_real_time_test.obj
 0003:00004188       $SG27324                   0000000180037188     c2_real_time_test.obj
 0003:00004198       $SG27387                   0000000180037198     c2_real_time_test.obj
 0003:000041a0       $SG26836                   00000001800371a0     c2_real_time_test.obj
 0003:000041e8       $SG26838                   00000001800371e8     c2_real_time_test.obj
 0003:000041f8       $SG27135                   00000001800371f8     c2_real_time_test.obj
 0003:00004208       $SG27327                   0000000180037208     c2_real_time_test.obj
 0003:00004218       $SG27390                   0000000180037218     c2_real_time_test.obj
 0003:00004220       $SG26839                   0000000180037220     c2_real_time_test.obj
 0003:00004268       $SG26841                   0000000180037268     c2_real_time_test.obj
 0003:00004278       $SG27165                   0000000180037278     c2_real_time_test.obj
 0003:00004298       $SG27330                   0000000180037298     c2_real_time_test.obj
 0003:000042a8       $SG27393                   00000001800372a8     c2_real_time_test.obj
 0003:000042b0       $SG26842                   00000001800372b0     c2_real_time_test.obj
 0003:000042f8       $SG26844                   00000001800372f8     c2_real_time_test.obj
 0003:00004308       $SG27318                   0000000180037308     c2_real_time_test.obj
 0003:00004318       $SG27333                   0000000180037318     c2_real_time_test.obj
 0003:00004328       $SG27396                   0000000180037328     c2_real_time_test.obj
 0003:00004330       $SG26845                   0000000180037330     c2_real_time_test.obj
 0003:00004378       $SG26847                   0000000180037378     c2_real_time_test.obj
 0003:00004388       $SG27336                   0000000180037388     c2_real_time_test.obj
 0003:00004398       $SG27414                   0000000180037398     c2_real_time_test.obj
 0003:000043a8       $SG27415                   00000001800373a8     c2_real_time_test.obj
 0003:000043c0       $SG26848                   00000001800373c0     c2_real_time_test.obj
 0003:00004408       $SG26850                   0000000180037408     c2_real_time_test.obj
 0003:00004418       $SG27339                   0000000180037418     c2_real_time_test.obj
 0003:00004428       $SG27418                   0000000180037428     c2_real_time_test.obj
 0003:00004438       $SG27419                   0000000180037438     c2_real_time_test.obj
 0003:00004450       $SG26851                   0000000180037450     c2_real_time_test.obj
 0003:00004498       $SG26853                   0000000180037498     c2_real_time_test.obj
 0003:000044a8       $SG27342                   00000001800374a8     c2_real_time_test.obj
 0003:000044b8       $SG27422                   00000001800374b8     c2_real_time_test.obj
 0003:000044c8       $SG27423                   00000001800374c8     c2_real_time_test.obj
 0003:000044e0       $SG26854                   00000001800374e0     c2_real_time_test.obj
 0003:00004528       $SG26856                   0000000180037528     c2_real_time_test.obj
 0003:00004538       $SG27345                   0000000180037538     c2_real_time_test.obj
 0003:00004548       $SG27426                   0000000180037548     c2_real_time_test.obj
 0003:00004558       $SG27427                   0000000180037558     c2_real_time_test.obj
 0003:00004570       $SG26857                   0000000180037570     c2_real_time_test.obj
 0003:000045b8       $SG26859                   00000001800375b8     c2_real_time_test.obj
 0003:000045c8       $SG27348                   00000001800375c8     c2_real_time_test.obj
 0003:000045d8       $SG27430                   00000001800375d8     c2_real_time_test.obj
 0003:000045e8       $SG27431                   00000001800375e8     c2_real_time_test.obj
 0003:00004600       $SG26860                   0000000180037600     c2_real_time_test.obj
 0003:00004648       $SG26862                   0000000180037648     c2_real_time_test.obj
 0003:00004658       $SG27351                   0000000180037658     c2_real_time_test.obj
 0003:00004668       $SG27433                   0000000180037668     c2_real_time_test.obj
 0003:00004678       $SG27434                   0000000180037678     c2_real_time_test.obj
 0003:00004690       $SG26863                   0000000180037690     c2_real_time_test.obj
 0003:000046d8       $SG26865                   00000001800376d8     c2_real_time_test.obj
 0003:000046e8       $SG27354                   00000001800376e8     c2_real_time_test.obj
 0003:000046f8       $SG27437                   00000001800376f8     c2_real_time_test.obj
 0003:00004708       $SG27438                   0000000180037708     c2_real_time_test.obj
 0003:00004720       $SG26866                   0000000180037720     c2_real_time_test.obj
 0003:00004768       $SG26868                   0000000180037768     c2_real_time_test.obj
 0003:00004778       $SG27357                   0000000180037778     c2_real_time_test.obj
 0003:00004788       $SG27441                   0000000180037788     c2_real_time_test.obj
 0003:00004798       $SG27442                   0000000180037798     c2_real_time_test.obj
 0003:000047b0       $SG26869                   00000001800377b0     c2_real_time_test.obj
 0003:000047f8       $SG26871                   00000001800377f8     c2_real_time_test.obj
 0003:00004808       $SG27360                   0000000180037808     c2_real_time_test.obj
 0003:00004818       $SG27445                   0000000180037818     c2_real_time_test.obj
 0003:00004828       $SG27446                   0000000180037828     c2_real_time_test.obj
 0003:00004840       $SG26872                   0000000180037840     c2_real_time_test.obj
 0003:00004888       $SG26874                   0000000180037888     c2_real_time_test.obj
 0003:00004898       $SG27449                   0000000180037898     c2_real_time_test.obj
 0003:000048a8       $SG27450                   00000001800378a8     c2_real_time_test.obj
 0003:000048c0       $SG26875                   00000001800378c0     c2_real_time_test.obj
 0003:00004908       $SG26877                   0000000180037908     c2_real_time_test.obj
 0003:00004918       $SG27539                   0000000180037918     c2_real_time_test.obj
 0003:00004930       $SG26878                   0000000180037930     c2_real_time_test.obj
 0003:00004978       $SG26880                   0000000180037978     c2_real_time_test.obj
 0003:00004988       $SG27543                   0000000180037988     c2_real_time_test.obj
 0003:000049a0       $SG26881                   00000001800379a0     c2_real_time_test.obj
 0003:000049e8       $SG26883                   00000001800379e8     c2_real_time_test.obj
 0003:000049f8       $SG27547                   00000001800379f8     c2_real_time_test.obj
 0003:00004a10       $SG26884                   0000000180037a10     c2_real_time_test.obj
 0003:00004a58       $SG26886                   0000000180037a58     c2_real_time_test.obj
 0003:00004a68       $SG27551                   0000000180037a68     c2_real_time_test.obj
 0003:00004a80       $SG26887                   0000000180037a80     c2_real_time_test.obj
 0003:00004ac8       $SG26889                   0000000180037ac8     c2_real_time_test.obj
 0003:00004ad8       $SG27555                   0000000180037ad8     c2_real_time_test.obj
 0003:00004af0       $SG26890                   0000000180037af0     c2_real_time_test.obj
 0003:00004b38       $SG26892                   0000000180037b38     c2_real_time_test.obj
 0003:00004b48       $SG27562                   0000000180037b48     c2_real_time_test.obj
 0003:00004b60       $SG26893                   0000000180037b60     c2_real_time_test.obj
 0003:00004ba8       $SG27566                   0000000180037ba8     c2_real_time_test.obj
 0003:00004bc0       $SG26896                   0000000180037bc0     c2_real_time_test.obj
 0003:00004c08       $SG26907                   0000000180037c08     c2_real_time_test.obj
 0003:00004c18       $SG27574                   0000000180037c18     c2_real_time_test.obj
 0003:00004c30       $SG26899                   0000000180037c30     c2_real_time_test.obj
 0003:00004c78       $SG26901                   0000000180037c78     c2_real_time_test.obj
 0003:00004c98       $SG26910                   0000000180037c98     c2_real_time_test.obj
 0003:00004ca8       $SG27578                   0000000180037ca8     c2_real_time_test.obj
 0003:00004cc0       $SG26902                   0000000180037cc0     c2_real_time_test.obj
 0003:00004d20       $SG26904                   0000000180037d20     c2_real_time_test.obj
 0003:00004d40       $SG26905                   0000000180037d40     c2_real_time_test.obj
 0003:00004da0       $SG26908                   0000000180037da0     c2_real_time_test.obj
 0003:00004de8       $SG27594                   0000000180037de8     c2_real_time_test.obj
 0003:00004e00       $SG26911                   0000000180037e00     c2_real_time_test.obj
 0003:00004e48       $SG26913                   0000000180037e48     c2_real_time_test.obj
 0003:00004e58       $SG27598                   0000000180037e58     c2_real_time_test.obj
 0003:00004e70       $SG26914                   0000000180037e70     c2_real_time_test.obj
 0003:00004eb8       $SG26916                   0000000180037eb8     c2_real_time_test.obj
 0003:00004ec8       $SG27602                   0000000180037ec8     c2_real_time_test.obj
 0003:00004ee0       $SG26917                   0000000180037ee0     c2_real_time_test.obj
 0003:00004f28       $SG26919                   0000000180037f28     c2_real_time_test.obj
 0003:00004f38       $SG27606                   0000000180037f38     c2_real_time_test.obj
 0003:00004f50       $SG26920                   0000000180037f50     c2_real_time_test.obj
 0003:00004f98       $SG26922                   0000000180037f98     c2_real_time_test.obj
 0003:00004fa8       $SG27610                   0000000180037fa8     c2_real_time_test.obj
 0003:00004fc0       $SG26923                   0000000180037fc0     c2_real_time_test.obj
 0003:00005008       $SG26925                   0000000180038008     c2_real_time_test.obj
 0003:00005018       $SG27614                   0000000180038018     c2_real_time_test.obj
 0003:00005030       $SG26926                   0000000180038030     c2_real_time_test.obj
 0003:00005078       $SG26928                   0000000180038078     c2_real_time_test.obj
 0003:00005088       $SG27618                   0000000180038088     c2_real_time_test.obj
 0003:000050a0       $SG26929                   00000001800380a0     c2_real_time_test.obj
 0003:000050e8       $SG26931                   00000001800380e8     c2_real_time_test.obj
 0003:000050f8       $SG27622                   00000001800380f8     c2_real_time_test.obj
 0003:00005110       $SG26932                   0000000180038110     c2_real_time_test.obj
 0003:00005158       $SG26934                   0000000180038158     c2_real_time_test.obj
 0003:00005168       $SG27626                   0000000180038168     c2_real_time_test.obj
 0003:00005180       $SG26935                   0000000180038180     c2_real_time_test.obj
 0003:000051c8       $SG26937                   00000001800381c8     c2_real_time_test.obj
 0003:000051d8       $SG27630                   00000001800381d8     c2_real_time_test.obj
 0003:000051f0       $SG26938                   00000001800381f0     c2_real_time_test.obj
 0003:00005238       $SG26940                   0000000180038238     c2_real_time_test.obj
 0003:00005248       $SG27638                   0000000180038248     c2_real_time_test.obj
 0003:00005260       $SG26941                   0000000180038260     c2_real_time_test.obj
 0003:000052a8       $SG26943                   00000001800382a8     c2_real_time_test.obj
 0003:000052b8       $SG27658                   00000001800382b8     c2_real_time_test.obj
 0003:000052d0       $SG26944                   00000001800382d0     c2_real_time_test.obj
 0003:00005318       $SG26946                   0000000180038318     c2_real_time_test.obj
 0003:00005328       $SG27662                   0000000180038328     c2_real_time_test.obj
 0003:00005340       $SG26947                   0000000180038340     c2_real_time_test.obj
 0003:00005388       $SG26949                   0000000180038388     c2_real_time_test.obj
 0003:00005398       $SG27666                   0000000180038398     c2_real_time_test.obj
 0003:000053b0       $SG26950                   00000001800383b0     c2_real_time_test.obj
 0003:000053f8       $SG26952                   00000001800383f8     c2_real_time_test.obj
 0003:00005408       $SG27676                   0000000180038408     c2_real_time_test.obj
 0003:00005420       $SG26953                   0000000180038420     c2_real_time_test.obj
 0003:00005468       $SG26955                   0000000180038468     c2_real_time_test.obj
 0003:00005478       $SG27680                   0000000180038478     c2_real_time_test.obj
 0003:00005490       $SG26956                   0000000180038490     c2_real_time_test.obj
 0003:000054d8       $SG26958                   00000001800384d8     c2_real_time_test.obj
 0003:000054e8       $SG27684                   00000001800384e8     c2_real_time_test.obj
 0003:00005500       $SG26959                   0000000180038500     c2_real_time_test.obj
 0003:00005548       $SG26961                   0000000180038548     c2_real_time_test.obj
 0003:00005558       $SG27688                   0000000180038558     c2_real_time_test.obj
 0003:00005570       $SG26962                   0000000180038570     c2_real_time_test.obj
 0003:000055b8       $SG26964                   00000001800385b8     c2_real_time_test.obj
 0003:000055c8       $SG27720                   00000001800385c8     c2_real_time_test.obj
 0003:000055d0       $SG26965                   00000001800385d0     c2_real_time_test.obj
 0003:00005618       $SG26967                   0000000180038618     c2_real_time_test.obj
 0003:00005628       $SG27724                   0000000180038628     c2_real_time_test.obj
 0003:00005630       $SG26968                   0000000180038630     c2_real_time_test.obj
 0003:00005678       $SG26970                   0000000180038678     c2_real_time_test.obj
 0003:00005688       $SG27728                   0000000180038688     c2_real_time_test.obj
 0003:00005690       $SG26971                   0000000180038690     c2_real_time_test.obj
 0003:000056d8       $SG26973                   00000001800386d8     c2_real_time_test.obj
 0003:000056e8       $SG27732                   00000001800386e8     c2_real_time_test.obj
 0003:000056f0       $SG26974                   00000001800386f0     c2_real_time_test.obj
 0003:00005738       $SG26976                   0000000180038738     c2_real_time_test.obj
 0003:00005748       $SG27736                   0000000180038748     c2_real_time_test.obj
 0003:00005750       $SG26977                   0000000180038750     c2_real_time_test.obj
 0003:00005798       $SG26979                   0000000180038798     c2_real_time_test.obj
 0003:000057a8       $SG27740                   00000001800387a8     c2_real_time_test.obj
 0003:000057b0       $SG26980                   00000001800387b0     c2_real_time_test.obj
 0003:000057f8       $SG26982                   00000001800387f8     c2_real_time_test.obj
 0003:00005808       $SG27744                   0000000180038808     c2_real_time_test.obj
 0003:00005810       $SG26983                   0000000180038810     c2_real_time_test.obj
 0003:00005858       $SG26985                   0000000180038858     c2_real_time_test.obj
 0003:00005868       $SG27748                   0000000180038868     c2_real_time_test.obj
 0003:00005870       $SG26986                   0000000180038870     c2_real_time_test.obj
 0003:000058b8       $SG26988                   00000001800388b8     c2_real_time_test.obj
 0003:000058c8       $SG27752                   00000001800388c8     c2_real_time_test.obj
 0003:000058d0       $SG26989                   00000001800388d0     c2_real_time_test.obj
 0003:00005918       $SG26991                   0000000180038918     c2_real_time_test.obj
 0003:00005928       $SG27756                   0000000180038928     c2_real_time_test.obj
 0003:00005930       $SG26992                   0000000180038930     c2_real_time_test.obj
 0003:00005978       $SG26994                   0000000180038978     c2_real_time_test.obj
 0003:00005988       $SG27760                   0000000180038988     c2_real_time_test.obj
 0003:00005990       $SG26995                   0000000180038990     c2_real_time_test.obj
 0003:000059d8       $SG26997                   00000001800389d8     c2_real_time_test.obj
 0003:000059e8       $SG27764                   00000001800389e8     c2_real_time_test.obj
 0003:000059f0       $SG26998                   00000001800389f0     c2_real_time_test.obj
 0003:00005a38       $SG27000                   0000000180038a38     c2_real_time_test.obj
 0003:00005a48       $SG27768                   0000000180038a48     c2_real_time_test.obj
 0003:00005a50       $SG27001                   0000000180038a50     c2_real_time_test.obj
 0003:00005a98       $SG27003                   0000000180038a98     c2_real_time_test.obj
 0003:00005aa8       $SG27772                   0000000180038aa8     c2_real_time_test.obj
 0003:00005ab0       $SG27004                   0000000180038ab0     c2_real_time_test.obj
 0003:00005af8       $SG27006                   0000000180038af8     c2_real_time_test.obj
 0003:00005b08       $SG27776                   0000000180038b08     c2_real_time_test.obj
 0003:00005b10       $SG27007                   0000000180038b10     c2_real_time_test.obj
 0003:00005b58       $SG27780                   0000000180038b58     c2_real_time_test.obj
 0003:00005b60       $SG27013                   0000000180038b60     c2_real_time_test.obj
 0003:00005bb8       $SG27018                   0000000180038bb8     c2_real_time_test.obj
 0003:00005bd8       $SG27147                   0000000180038bd8     c2_real_time_test.obj
 0003:00005bf8       $SG27784                   0000000180038bf8     c2_real_time_test.obj
 0003:00005c00       $SG27016                   0000000180038c00     c2_real_time_test.obj
 0003:00005c58       $SG27788                   0000000180038c58     c2_real_time_test.obj
 0003:00005c60       $SG27019                   0000000180038c60     c2_real_time_test.obj
 0003:00005cd0       $SG27021                   0000000180038cd0     c2_real_time_test.obj
 0003:00005cf0       $SG27022                   0000000180038cf0     c2_real_time_test.obj
 0003:00005d60       $SG27025                   0000000180038d60     c2_real_time_test.obj
 0003:00005da8       $SG27792                   0000000180038da8     c2_real_time_test.obj
 0003:00005db0       $SG27028                   0000000180038db0     c2_real_time_test.obj
 0003:00005df8       $SG27796                   0000000180038df8     c2_real_time_test.obj
 0003:00005e00       $SG27031                   0000000180038e00     c2_real_time_test.obj
 0003:00005e48       $SG27800                   0000000180038e48     c2_real_time_test.obj
 0003:00005e50       $SG27034                   0000000180038e50     c2_real_time_test.obj
 0003:00005e98       $SG27804                   0000000180038e98     c2_real_time_test.obj
 0003:00005ea0       $SG27037                   0000000180038ea0     c2_real_time_test.obj
 0003:00005ee8       $SG27808                   0000000180038ee8     c2_real_time_test.obj
 0003:00005ef0       $SG27040                   0000000180038ef0     c2_real_time_test.obj
 0003:00005f38       $SG27812                   0000000180038f38     c2_real_time_test.obj
 0003:00005f40       $SG27043                   0000000180038f40     c2_real_time_test.obj
 0003:00005f88       $SG27189                   0000000180038f88     c2_real_time_test.obj
 0003:00005f98       $SG27816                   0000000180038f98     c2_real_time_test.obj
 0003:00005fa0       $SG27046                   0000000180038fa0     c2_real_time_test.obj
 0003:00005fe8       $SG27192                   0000000180038fe8     c2_real_time_test.obj
 0003:00005ff8       $SG27820                   0000000180038ff8     c2_real_time_test.obj
 0003:00006000       $SG27049                   0000000180039000     c2_real_time_test.obj
 0003:00006048       $SG27195                   0000000180039048     c2_real_time_test.obj
 0003:00006058       $SG27824                   0000000180039058     c2_real_time_test.obj
 0003:00006060       $SG27052                   0000000180039060     c2_real_time_test.obj
 0003:000060a8       $SG27201                   00000001800390a8     c2_real_time_test.obj
 0003:000060b8       $SG27828                   00000001800390b8     c2_real_time_test.obj
 0003:000060c0       $SG27055                   00000001800390c0     c2_real_time_test.obj
 0003:00006108       $SG27204                   0000000180039108     c2_real_time_test.obj
 0003:00006118       $SG27832                   0000000180039118     c2_real_time_test.obj
 0003:00006120       $SG27058                   0000000180039120     c2_real_time_test.obj
 0003:00006168       $SG27207                   0000000180039168     c2_real_time_test.obj
 0003:00006178       $SG27836                   0000000180039178     c2_real_time_test.obj
 0003:00006180       $SG27061                   0000000180039180     c2_real_time_test.obj
 0003:000061c8       $SG27210                   00000001800391c8     c2_real_time_test.obj
 0003:000061d8       $SG27840                   00000001800391d8     c2_real_time_test.obj
 0003:000061e0       $SG27064                   00000001800391e0     c2_real_time_test.obj
 0003:00006228       $SG27213                   0000000180039228     c2_real_time_test.obj
 0003:00006238       $SG27844                   0000000180039238     c2_real_time_test.obj
 0003:00006240       $SG27067                   0000000180039240     c2_real_time_test.obj
 0003:00006288       $SG27222                   0000000180039288     c2_real_time_test.obj
 0003:00006298       $SG27848                   0000000180039298     c2_real_time_test.obj
 0003:000062a0       $SG27070                   00000001800392a0     c2_real_time_test.obj
 0003:000062e8       $SG27231                   00000001800392e8     c2_real_time_test.obj
 0003:000062f8       $SG27852                   00000001800392f8     c2_real_time_test.obj
 0003:00006300       $SG27073                   0000000180039300     c2_real_time_test.obj
 0003:00006348       $SG27234                   0000000180039348     c2_real_time_test.obj
 0003:00006358       $SG27856                   0000000180039358     c2_real_time_test.obj
 0003:00006360       $SG27076                   0000000180039360     c2_real_time_test.obj
 0003:000063a8       $SG27237                   00000001800393a8     c2_real_time_test.obj
 0003:000063b8       $SG27860                   00000001800393b8     c2_real_time_test.obj
 0003:000063c0       $SG27079                   00000001800393c0     c2_real_time_test.obj
 0003:00006408       $SG27240                   0000000180039408     c2_real_time_test.obj
 0003:00006418       $SG27864                   0000000180039418     c2_real_time_test.obj
 0003:00006420       $SG27082                   0000000180039420     c2_real_time_test.obj
 0003:00006468       $SG27243                   0000000180039468     c2_real_time_test.obj
 0003:00006478       $SG27868                   0000000180039478     c2_real_time_test.obj
 0003:00006480       $SG27085                   0000000180039480     c2_real_time_test.obj
 0003:000064e0       $SG27088                   00000001800394e0     c2_real_time_test.obj
 0003:00006540       $SG27091                   0000000180039540     c2_real_time_test.obj
 0003:000065a0       $SG27094                   00000001800395a0     c2_real_time_test.obj
 0003:00006600       $SG27097                   0000000180039600     c2_real_time_test.obj
 0003:00006660       $SG27100                   0000000180039660     c2_real_time_test.obj
 0003:000066c0       $SG27103                   00000001800396c0     c2_real_time_test.obj
 0003:00006720       $SG27106                   0000000180039720     c2_real_time_test.obj
 0003:00006780       $SG27109                   0000000180039780     c2_real_time_test.obj
 0003:000067e0       $SG27112                   00000001800397e0     c2_real_time_test.obj
 0003:00006840       $SG27115                   0000000180039840     c2_real_time_test.obj
 0003:000068a0       $SG27118                   00000001800398a0     c2_real_time_test.obj
 0003:00006900       $SG27121                   0000000180039900     c2_real_time_test.obj
 0003:00006960       $SG27124                   0000000180039960     c2_real_time_test.obj
 0003:000069c0       $SG27127                   00000001800399c0     c2_real_time_test.obj
 0003:00006a08       $SG27872                   0000000180039a08     c2_real_time_test.obj
 0003:00006a10       $SG27130                   0000000180039a10     c2_real_time_test.obj
 0003:00006a58       $SG27876                   0000000180039a58     c2_real_time_test.obj
 0003:00006a60       $SG27133                   0000000180039a60     c2_real_time_test.obj
 0003:00006aa8       $SG27880                   0000000180039aa8     c2_real_time_test.obj
 0003:00006ab0       $SG27136                   0000000180039ab0     c2_real_time_test.obj
 0003:00006af8       $SG27884                   0000000180039af8     c2_real_time_test.obj
 0003:00006b00       $SG27139                   0000000180039b00     c2_real_time_test.obj
 0003:00006b50       $SG27142                   0000000180039b50     c2_real_time_test.obj
 0003:00006ba0       $SG27145                   0000000180039ba0     c2_real_time_test.obj
 0003:00006bf0       $SG27148                   0000000180039bf0     c2_real_time_test.obj
 0003:00006c58       $SG27888                   0000000180039c58     c2_real_time_test.obj
 0003:00006c60       $SG27151                   0000000180039c60     c2_real_time_test.obj
 0003:00006ca8       $SG27246                   0000000180039ca8     c2_real_time_test.obj
 0003:00006cb8       $SG27892                   0000000180039cb8     c2_real_time_test.obj
 0003:00006cc0       $SG27154                   0000000180039cc0     c2_real_time_test.obj
 0003:00006d08       $SG27306                   0000000180039d08     c2_real_time_test.obj
 0003:00006d18       $SG27896                   0000000180039d18     c2_real_time_test.obj
 0003:00006d20       $SG27157                   0000000180039d20     c2_real_time_test.obj
 0003:00006d68       $SG27309                   0000000180039d68     c2_real_time_test.obj
 0003:00006d78       $SG27899                   0000000180039d78     c2_real_time_test.obj
 0003:00006d88       $SG27984                   0000000180039d88     c2_real_time_test.obj
 0003:00006d90       $SG27160                   0000000180039d90     c2_real_time_test.obj
 0003:00006dd8       $SG27312                   0000000180039dd8     c2_real_time_test.obj
 0003:00006de8       $SG27903                   0000000180039de8     c2_real_time_test.obj
 0003:00006df8       $SG27988                   0000000180039df8     c2_real_time_test.obj
 0003:00006e00       $SG27163                   0000000180039e00     c2_real_time_test.obj
 0003:00006e60       $SG27166                   0000000180039e60     c2_real_time_test.obj
 0003:00006ec0       $SG27187                   0000000180039ec0     c2_real_time_test.obj
 0003:00006f08       $SG27907                   0000000180039f08     c2_real_time_test.obj
 0003:00006f18       $SG27992                   0000000180039f18     c2_real_time_test.obj
 0003:00006f20       $SG27190                   0000000180039f20     c2_real_time_test.obj
 0003:00006f68       $SG27996                   0000000180039f68     c2_real_time_test.obj
 0003:00006f70       $SG27193                   0000000180039f70     c2_real_time_test.obj
 0003:00006fb8       $SG28000                   0000000180039fb8     c2_real_time_test.obj
 0003:00006fc0       $SG27196                   0000000180039fc0     c2_real_time_test.obj
 0003:00007008       $SG28004                   000000018003a008     c2_real_time_test.obj
 0003:00007010       $SG27199                   000000018003a010     c2_real_time_test.obj
 0003:00007060       $SG27202                   000000018003a060     c2_real_time_test.obj
 0003:000070a8       $SG28008                   000000018003a0a8     c2_real_time_test.obj
 0003:000070b0       $SG27205                   000000018003a0b0     c2_real_time_test.obj
 0003:000070f8       $SG28012                   000000018003a0f8     c2_real_time_test.obj
 0003:00007100       $SG27208                   000000018003a100     c2_real_time_test.obj
 0003:00007148       $SG28016                   000000018003a148     c2_real_time_test.obj
 0003:00007150       $SG27211                   000000018003a150     c2_real_time_test.obj
 0003:00007198       $SG28020                   000000018003a198     c2_real_time_test.obj
 0003:000071a0       $SG27214                   000000018003a1a0     c2_real_time_test.obj
 0003:000071e8       $SG28024                   000000018003a1e8     c2_real_time_test.obj
 0003:000071f0       $SG27217                   000000018003a1f0     c2_real_time_test.obj
 0003:00007250       $SG27220                   000000018003a250     c2_real_time_test.obj
 0003:000072b0       $SG27223                   000000018003a2b0     c2_real_time_test.obj
 0003:000072f8       $SG28028                   000000018003a2f8     c2_real_time_test.obj
 0003:00007300       $SG27226                   000000018003a300     c2_real_time_test.obj
 0003:00007360       $SG27229                   000000018003a360     c2_real_time_test.obj
 0003:000073c0       $SG27232                   000000018003a3c0     c2_real_time_test.obj
 0003:00007408       $SG28032                   000000018003a408     c2_real_time_test.obj
 0003:00007410       $SG27235                   000000018003a410     c2_real_time_test.obj
 0003:00007458       $SG28036                   000000018003a458     c2_real_time_test.obj
 0003:00007460       $SG27238                   000000018003a460     c2_real_time_test.obj
 0003:000074a8       $SG28040                   000000018003a4a8     c2_real_time_test.obj
 0003:000074b0       $SG27241                   000000018003a4b0     c2_real_time_test.obj
 0003:000074f8       $SG28044                   000000018003a4f8     c2_real_time_test.obj
 0003:00007500       $SG27244                   000000018003a500     c2_real_time_test.obj
 0003:00007548       $SG28048                   000000018003a548     c2_real_time_test.obj
 0003:00007550       $SG27247                   000000018003a550     c2_real_time_test.obj
 0003:00007598       $SG28052                   000000018003a598     c2_real_time_test.obj
 0003:000075a0       $SG27250                   000000018003a5a0     c2_real_time_test.obj
 0003:00007608       $SG27910                   000000018003a608     c2_real_time_test.obj
 0003:00007618       $SG28056                   000000018003a618     c2_real_time_test.obj
 0003:00007620       $SG27253                   000000018003a620     c2_real_time_test.obj
 0003:00007688       $SG27913                   000000018003a688     c2_real_time_test.obj
 0003:00007698       $SG28060                   000000018003a698     c2_real_time_test.obj
 0003:000076a0       $SG27256                   000000018003a6a0     c2_real_time_test.obj
 0003:00007708       $SG27917                   000000018003a708     c2_real_time_test.obj
 0003:00007718       $SG28064                   000000018003a718     c2_real_time_test.obj
 0003:00007720       $SG27259                   000000018003a720     c2_real_time_test.obj
 0003:00007788       $SG27261                   000000018003a788     c2_real_time_test.obj
 0003:00007798       $SG27315                   000000018003a798     c2_real_time_test.obj
 0003:000077a8       $SG27921                   000000018003a7a8     c2_real_time_test.obj
 0003:000077b8       $SG28068                   000000018003a7b8     c2_real_time_test.obj
 0003:000077c0       $SG27262                   000000018003a7c0     c2_real_time_test.obj
 0003:00007808       $SG27264                   000000018003a808     c2_real_time_test.obj
 0003:00007818       $SG27363                   000000018003a818     c2_real_time_test.obj
 0003:00007828       $SG27925                   000000018003a828     c2_real_time_test.obj
 0003:00007840       $SG27265                   000000018003a840     c2_real_time_test.obj
 0003:00007888       $SG27267                   000000018003a888     c2_real_time_test.obj
 0003:000078a0       $SG27268                   000000018003a8a0     c2_real_time_test.obj
 0003:000078e8       $SG27270                   000000018003a8e8     c2_real_time_test.obj
 0003:00007900       $SG27271                   000000018003a900     c2_real_time_test.obj
 0003:00007948       $SG27273                   000000018003a948     c2_real_time_test.obj
 0003:00007960       $SG27274                   000000018003a960     c2_real_time_test.obj
 0003:000079a8       $SG27276                   000000018003a9a8     c2_real_time_test.obj
 0003:000079c0       $SG27277                   000000018003a9c0     c2_real_time_test.obj
 0003:00007a08       $SG27279                   000000018003aa08     c2_real_time_test.obj
 0003:00007a20       $SG27280                   000000018003aa20     c2_real_time_test.obj
 0003:00007a68       $SG27282                   000000018003aa68     c2_real_time_test.obj
 0003:00007a80       $SG27283                   000000018003aa80     c2_real_time_test.obj
 0003:00007ac8       $SG27285                   000000018003aac8     c2_real_time_test.obj
 0003:00007ae0       $SG27286                   000000018003aae0     c2_real_time_test.obj
 0003:00007b28       $SG27288                   000000018003ab28     c2_real_time_test.obj
 0003:00007b40       $SG27289                   000000018003ab40     c2_real_time_test.obj
 0003:00007b88       $SG27291                   000000018003ab88     c2_real_time_test.obj
 0003:00007ba0       $SG27292                   000000018003aba0     c2_real_time_test.obj
 0003:00007bf0       $SG27295                   000000018003abf0     c2_real_time_test.obj
 0003:00007c60       $SG27298                   000000018003ac60     c2_real_time_test.obj
 0003:00007cd0       $SG27301                   000000018003acd0     c2_real_time_test.obj
 0003:00007d40       $SG27304                   000000018003ad40     c2_real_time_test.obj
 0003:00007d98       $SG27366                   000000018003ad98     c2_real_time_test.obj
 0003:00007db0       $SG27307                   000000018003adb0     c2_real_time_test.obj
 0003:00007e00       $SG27310                   000000018003ae00     c2_real_time_test.obj
 0003:00007e50       $SG27313                   000000018003ae50     c2_real_time_test.obj
 0003:00007ea0       $SG27316                   000000018003aea0     c2_real_time_test.obj
 0003:00007ef0       $SG27319                   000000018003aef0     c2_real_time_test.obj
 0003:00007f40       $SG27322                   000000018003af40     c2_real_time_test.obj
 0003:00007fa0       $SG27325                   000000018003afa0     c2_real_time_test.obj
 0003:00008000       $SG27328                   000000018003b000     c2_real_time_test.obj
 0003:00008060       $SG27331                   000000018003b060     c2_real_time_test.obj
 0003:000080c0       $SG27334                   000000018003b0c0     c2_real_time_test.obj
 0003:00008120       $SG27337                   000000018003b120     c2_real_time_test.obj
 0003:00008180       $SG27340                   000000018003b180     c2_real_time_test.obj
 0003:000081e0       $SG27343                   000000018003b1e0     c2_real_time_test.obj
 0003:00008240       $SG27346                   000000018003b240     c2_real_time_test.obj
 0003:000082a0       $SG27349                   000000018003b2a0     c2_real_time_test.obj
 0003:00008300       $SG27352                   000000018003b300     c2_real_time_test.obj
 0003:00008350       $SG27355                   000000018003b350     c2_real_time_test.obj
 0003:000083a0       $SG27358                   000000018003b3a0     c2_real_time_test.obj
 0003:000083f0       $SG27361                   000000018003b3f0     c2_real_time_test.obj
 0003:00008440       $SG27364                   000000018003b440     c2_real_time_test.obj
 0003:00008490       $SG27367                   000000018003b490     c2_real_time_test.obj
 0003:000084d8       $SG27369                   000000018003b4d8     c2_real_time_test.obj
 0003:000084f0       $SG27370                   000000018003b4f0     c2_real_time_test.obj
 0003:00008538       $SG27372                   000000018003b538     c2_real_time_test.obj
 0003:00008550       $SG27373                   000000018003b550     c2_real_time_test.obj
 0003:000085a0       $SG27376                   000000018003b5a0     c2_real_time_test.obj
 0003:000085f0       $SG27379                   000000018003b5f0     c2_real_time_test.obj
 0003:00008640       $SG27382                   000000018003b640     c2_real_time_test.obj
 0003:00008690       $SG27385                   000000018003b690     c2_real_time_test.obj
 0003:000086e0       $SG27388                   000000018003b6e0     c2_real_time_test.obj
 0003:00008730       $SG27391                   000000018003b730     c2_real_time_test.obj
 0003:00008780       $SG27394                   000000018003b780     c2_real_time_test.obj
 0003:000087d0       $SG27397                   000000018003b7d0     c2_real_time_test.obj
 0003:00008820       $SG27400                   000000018003b820     c2_real_time_test.obj
 0003:00008870       $SG27403                   000000018003b870     c2_real_time_test.obj
 0003:000088b8       $SG27405                   000000018003b8b8     c2_real_time_test.obj
 0003:000088d0       $SG27406                   000000018003b8d0     c2_real_time_test.obj
 0003:00008918       $SG27408                   000000018003b918     c2_real_time_test.obj
 0003:00008930       $SG27409                   000000018003b930     c2_real_time_test.obj
 0003:00008980       $SG27412                   000000018003b980     c2_real_time_test.obj
 0003:000089d0       $SG27454                   000000018003b9d0     c2_real_time_test.obj
 0003:00008a18       $SG27468                   000000018003ba18     c2_real_time_test.obj
 0003:00008a30       $SG27458                   000000018003ba30     c2_real_time_test.obj
 0003:00008a78       $SG27472                   000000018003ba78     c2_real_time_test.obj
 0003:00008a90       $SG27462                   000000018003ba90     c2_real_time_test.obj
 0003:00008ad8       $SG27476                   000000018003bad8     c2_real_time_test.obj
 0003:00008af0       $SG27466                   000000018003baf0     c2_real_time_test.obj
 0003:00008b38       $SG27480                   000000018003bb38     c2_real_time_test.obj
 0003:00008b50       $SG27469                   000000018003bb50     c2_real_time_test.obj
 0003:00008ba0       $SG27473                   000000018003bba0     c2_real_time_test.obj
 0003:00008bf0       $SG27477                   000000018003bbf0     c2_real_time_test.obj
 0003:00008c40       $SG27481                   000000018003bc40     c2_real_time_test.obj
 0003:00008c88       $SG27484                   000000018003bc88     c2_real_time_test.obj
 0003:00008ca0       $SG27485                   000000018003bca0     c2_real_time_test.obj
 0003:00008ce8       $SG27488                   000000018003bce8     c2_real_time_test.obj
 0003:00008d00       $SG27489                   000000018003bd00     c2_real_time_test.obj
 0003:00008d48       $SG27492                   000000018003bd48     c2_real_time_test.obj
 0003:00008d60       $SG27493                   000000018003bd60     c2_real_time_test.obj
 0003:00008da8       $SG27496                   000000018003bda8     c2_real_time_test.obj
 0003:00008dc0       $SG27497                   000000018003bdc0     c2_real_time_test.obj
 0003:00008e08       $SG27500                   000000018003be08     c2_real_time_test.obj
 0003:00008e20       $SG27501                   000000018003be20     c2_real_time_test.obj
 0003:00008e68       $SG27504                   000000018003be68     c2_real_time_test.obj
 0003:00008e80       $SG27505                   000000018003be80     c2_real_time_test.obj
 0003:00008ec8       $SG27508                   000000018003bec8     c2_real_time_test.obj
 0003:00008ee0       $SG27509                   000000018003bee0     c2_real_time_test.obj
 0003:00008f28       $SG27512                   000000018003bf28     c2_real_time_test.obj
 0003:00008f40       $SG27513                   000000018003bf40     c2_real_time_test.obj
 0003:00008f88       $SG27516                   000000018003bf88     c2_real_time_test.obj
 0003:00008fa0       $SG27517                   000000018003bfa0     c2_real_time_test.obj
 0003:00008fe8       $SG27520                   000000018003bfe8     c2_real_time_test.obj
 0003:00009000       $SG27521                   000000018003c000     c2_real_time_test.obj
 0003:00009048       $SG27524                   000000018003c048     c2_real_time_test.obj
 0003:00009060       $SG27525                   000000018003c060     c2_real_time_test.obj
 0003:000090a8       $SG27528                   000000018003c0a8     c2_real_time_test.obj
 0003:000090c0       $SG27529                   000000018003c0c0     c2_real_time_test.obj
 0003:00009108       $SG27532                   000000018003c108     c2_real_time_test.obj
 0003:00009120       $SG27533                   000000018003c120     c2_real_time_test.obj
 0003:00009168       $SG27536                   000000018003c168     c2_real_time_test.obj
 0003:00009180       $SG27537                   000000018003c180     c2_real_time_test.obj
 0003:000091d0       $SG27540                   000000018003c1d0     c2_real_time_test.obj
 0003:00009240       $SG27544                   000000018003c240     c2_real_time_test.obj
 0003:000092b0       $SG27548                   000000018003c2b0     c2_real_time_test.obj
 0003:00009320       $SG27552                   000000018003c320     c2_real_time_test.obj
 0003:00009390       $SG27556                   000000018003c390     c2_real_time_test.obj
 0003:000093f8       $SG27558                   000000018003c3f8     c2_real_time_test.obj
 0003:00009410       $SG27559                   000000018003c410     c2_real_time_test.obj
 0003:00009460       $SG27563                   000000018003c460     c2_real_time_test.obj
 0003:000094d0       $SG27567                   000000018003c4d0     c2_real_time_test.obj
 0003:00009538       $SG27570                   000000018003c538     c2_real_time_test.obj
 0003:00009550       $SG27571                   000000018003c550     c2_real_time_test.obj
 0003:000095a0       $SG27575                   000000018003c5a0     c2_real_time_test.obj
 0003:00009610       $SG27579                   000000018003c610     c2_real_time_test.obj
 0003:00009678       $SG27582                   000000018003c678     c2_real_time_test.obj
 0003:00009690       $SG27583                   000000018003c690     c2_real_time_test.obj
 0003:000096d8       $SG27586                   000000018003c6d8     c2_real_time_test.obj
 0003:000096f0       $SG27587                   000000018003c6f0     c2_real_time_test.obj
 0003:00009738       $SG27590                   000000018003c738     c2_real_time_test.obj
 0003:00009750       $SG27591                   000000018003c750     c2_real_time_test.obj
 0003:000097a0       $SG27595                   000000018003c7a0     c2_real_time_test.obj
 0003:00009810       $SG27599                   000000018003c810     c2_real_time_test.obj
 0003:00009880       $SG27603                   000000018003c880     c2_real_time_test.obj
 0003:000098f0       $SG27607                   000000018003c8f0     c2_real_time_test.obj
 0003:00009960       $SG27611                   000000018003c960     c2_real_time_test.obj
 0003:000099d0       $SG27615                   000000018003c9d0     c2_real_time_test.obj
 0003:00009a40       $SG27619                   000000018003ca40     c2_real_time_test.obj
 0003:00009ab0       $SG27623                   000000018003cab0     c2_real_time_test.obj
 0003:00009b20       $SG27627                   000000018003cb20     c2_real_time_test.obj
 0003:00009b90       $SG27631                   000000018003cb90     c2_real_time_test.obj
 0003:00009bf8       $SG27634                   000000018003cbf8     c2_real_time_test.obj
 0003:00009c10       $SG27635                   000000018003cc10     c2_real_time_test.obj
 0003:00009c60       $SG27639                   000000018003cc60     c2_real_time_test.obj
 0003:00009cc8       $SG27642                   000000018003ccc8     c2_real_time_test.obj
 0003:00009ce0       $SG27643                   000000018003cce0     c2_real_time_test.obj
 0003:00009d28       $SG27646                   000000018003cd28     c2_real_time_test.obj
 0003:00009d40       $SG27647                   000000018003cd40     c2_real_time_test.obj
 0003:00009d88       $SG27650                   000000018003cd88     c2_real_time_test.obj
 0003:00009da0       $SG27651                   000000018003cda0     c2_real_time_test.obj
 0003:00009de8       $SG27654                   000000018003cde8     c2_real_time_test.obj
 0003:00009e00       $SG27655                   000000018003ce00     c2_real_time_test.obj
 0003:00009e50       $SG27659                   000000018003ce50     c2_real_time_test.obj
 0003:00009ec0       $SG27663                   000000018003cec0     c2_real_time_test.obj
 0003:00009f30       $SG27667                   000000018003cf30     c2_real_time_test.obj
 0003:00009f98       $SG27669                   000000018003cf98     c2_real_time_test.obj
 0003:00009fb0       $SG27670                   000000018003cfb0     c2_real_time_test.obj
 0003:00009ff8       $SG27672                   000000018003cff8     c2_real_time_test.obj
 0003:0000a010       $SG27673                   000000018003d010     c2_real_time_test.obj
 0003:0000a060       $SG27677                   000000018003d060     c2_real_time_test.obj
 0003:0000a0d0       $SG27681                   000000018003d0d0     c2_real_time_test.obj
 0003:0000a140       $SG27685                   000000018003d140     c2_real_time_test.obj
 0003:0000a1b0       $SG27689                   000000018003d1b0     c2_real_time_test.obj
 0003:0000a218       $SG27692                   000000018003d218     c2_real_time_test.obj
 0003:0000a230       $SG27693                   000000018003d230     c2_real_time_test.obj
 0003:0000a278       $SG27696                   000000018003d278     c2_real_time_test.obj
 0003:0000a290       $SG27697                   000000018003d290     c2_real_time_test.obj
 0003:0000a2d8       $SG27700                   000000018003d2d8     c2_real_time_test.obj
 0003:0000a2f0       $SG27701                   000000018003d2f0     c2_real_time_test.obj
 0003:0000a338       $SG27704                   000000018003d338     c2_real_time_test.obj
 0003:0000a350       $SG27705                   000000018003d350     c2_real_time_test.obj
 0003:0000a398       $SG27708                   000000018003d398     c2_real_time_test.obj
 0003:0000a3b0       $SG27709                   000000018003d3b0     c2_real_time_test.obj
 0003:0000a3f8       $SG27712                   000000018003d3f8     c2_real_time_test.obj
 0003:0000a410       $SG27713                   000000018003d410     c2_real_time_test.obj
 0003:0000a458       $SG27716                   000000018003d458     c2_real_time_test.obj
 0003:0000a470       $SG27717                   000000018003d470     c2_real_time_test.obj
 0003:0000a4c0       $SG27721                   000000018003d4c0     c2_real_time_test.obj
 0003:0000a510       $SG27725                   000000018003d510     c2_real_time_test.obj
 0003:0000a560       $SG27729                   000000018003d560     c2_real_time_test.obj
 0003:0000a5b0       $SG27733                   000000018003d5b0     c2_real_time_test.obj
 0003:0000a600       $SG27737                   000000018003d600     c2_real_time_test.obj
 0003:0000a650       $SG27741                   000000018003d650     c2_real_time_test.obj
 0003:0000a6a0       $SG27745                   000000018003d6a0     c2_real_time_test.obj
 0003:0000a6f0       $SG27749                   000000018003d6f0     c2_real_time_test.obj
 0003:0000a740       $SG27753                   000000018003d740     c2_real_time_test.obj
 0003:0000a790       $SG27757                   000000018003d790     c2_real_time_test.obj
 0003:0000a7e0       $SG27761                   000000018003d7e0     c2_real_time_test.obj
 0003:0000a830       $SG27765                   000000018003d830     c2_real_time_test.obj
 0003:0000a880       $SG27769                   000000018003d880     c2_real_time_test.obj
 0003:0000a8d0       $SG27773                   000000018003d8d0     c2_real_time_test.obj
 0003:0000a920       $SG27777                   000000018003d920     c2_real_time_test.obj
 0003:0000a970       $SG27781                   000000018003d970     c2_real_time_test.obj
 0003:0000a9c0       $SG27785                   000000018003d9c0     c2_real_time_test.obj
 0003:0000aa10       $SG27789                   000000018003da10     c2_real_time_test.obj
 0003:0000aa60       $SG27793                   000000018003da60     c2_real_time_test.obj
 0003:0000aab0       $SG27797                   000000018003dab0     c2_real_time_test.obj
 0003:0000ab00       $SG27801                   000000018003db00     c2_real_time_test.obj
 0003:0000ab50       $SG27805                   000000018003db50     c2_real_time_test.obj
 0003:0000aba0       $SG27809                   000000018003dba0     c2_real_time_test.obj
 0003:0000abf0       $SG27813                   000000018003dbf0     c2_real_time_test.obj
 0003:0000ac40       $SG27817                   000000018003dc40     c2_real_time_test.obj
 0003:0000ac90       $SG27821                   000000018003dc90     c2_real_time_test.obj
 0003:0000ace0       $SG27825                   000000018003dce0     c2_real_time_test.obj
 0003:0000ad30       $SG27829                   000000018003dd30     c2_real_time_test.obj
 0003:0000ad80       $SG27833                   000000018003dd80     c2_real_time_test.obj
 0003:0000add0       $SG27837                   000000018003ddd0     c2_real_time_test.obj
 0003:0000ae20       $SG27841                   000000018003de20     c2_real_time_test.obj
 0003:0000ae70       $SG27845                   000000018003de70     c2_real_time_test.obj
 0003:0000aec0       $SG27849                   000000018003dec0     c2_real_time_test.obj
 0003:0000af10       $SG27853                   000000018003df10     c2_real_time_test.obj
 0003:0000af60       $SG27857                   000000018003df60     c2_real_time_test.obj
 0003:0000afb0       $SG27861                   000000018003dfb0     c2_real_time_test.obj
 0003:0000b000       $SG27865                   000000018003e000     c2_real_time_test.obj
 0003:0000b050       $SG27869                   000000018003e050     c2_real_time_test.obj
 0003:0000b0a0       $SG27873                   000000018003e0a0     c2_real_time_test.obj
 0003:0000b0f0       $SG27877                   000000018003e0f0     c2_real_time_test.obj
 0003:0000b140       $SG27881                   000000018003e140     c2_real_time_test.obj
 0003:0000b190       $SG27885                   000000018003e190     c2_real_time_test.obj
 0003:0000b1e0       $SG27889                   000000018003e1e0     c2_real_time_test.obj
 0003:0000b230       $SG27893                   000000018003e230     c2_real_time_test.obj
 0003:0000b280       $SG27897                   000000018003e280     c2_real_time_test.obj
 0003:0000b2d0       $SG27900                   000000018003e2d0     c2_real_time_test.obj
 0003:0000b330       $SG27904                   000000018003e330     c2_real_time_test.obj
 0003:0000b390       $SG27908                   000000018003e390     c2_real_time_test.obj
 0003:0000b3f0       $SG27911                   000000018003e3f0     c2_real_time_test.obj
 0003:0000b450       $SG27914                   000000018003e450     c2_real_time_test.obj
 0003:0000b4b0       $SG27918                   000000018003e4b0     c2_real_time_test.obj
 0003:0000b510       $SG27922                   000000018003e510     c2_real_time_test.obj
 0003:0000b570       $SG27926                   000000018003e570     c2_real_time_test.obj
 0003:0000b5d0       $SG27928                   000000018003e5d0     c2_real_time_test.obj
 0003:0000b5e0       $SG27929                   000000018003e5e0     c2_real_time_test.obj
 0003:0000b640       $SG27932                   000000018003e640     c2_real_time_test.obj
 0003:0000b650       $SG27933                   000000018003e650     c2_real_time_test.obj
 0003:0000b6b0       $SG27936                   000000018003e6b0     c2_real_time_test.obj
 0003:0000b6c0       $SG27937                   000000018003e6c0     c2_real_time_test.obj
 0003:0000b720       $SG27940                   000000018003e720     c2_real_time_test.obj
 0003:0000b730       $SG27941                   000000018003e730     c2_real_time_test.obj
 0003:0000b790       $SG27944                   000000018003e790     c2_real_time_test.obj
 0003:0000b7a0       $SG27945                   000000018003e7a0     c2_real_time_test.obj
 0003:0000b800       $SG27948                   000000018003e800     c2_real_time_test.obj
 0003:0000b810       $SG27949                   000000018003e810     c2_real_time_test.obj
 0003:0000b870       $SG27952                   000000018003e870     c2_real_time_test.obj
 0003:0000b880       $SG27953                   000000018003e880     c2_real_time_test.obj
 0003:0000b8e0       $SG27956                   000000018003e8e0     c2_real_time_test.obj
 0003:0000b8f0       $SG27957                   000000018003e8f0     c2_real_time_test.obj
 0003:0000b950       $SG27960                   000000018003e950     c2_real_time_test.obj
 0003:0000b960       $SG27961                   000000018003e960     c2_real_time_test.obj
 0003:0000b9c0       $SG27964                   000000018003e9c0     c2_real_time_test.obj
 0003:0000b9d0       $SG27965                   000000018003e9d0     c2_real_time_test.obj
 0003:0000ba30       $SG27968                   000000018003ea30     c2_real_time_test.obj
 0003:0000ba40       $SG27969                   000000018003ea40     c2_real_time_test.obj
 0003:0000baa0       $SG27972                   000000018003eaa0     c2_real_time_test.obj
 0003:0000bab0       $SG27973                   000000018003eab0     c2_real_time_test.obj
 0003:0000bb10       $SG27976                   000000018003eb10     c2_real_time_test.obj
 0003:0000bb20       $SG27977                   000000018003eb20     c2_real_time_test.obj
 0003:0000bb80       $SG27980                   000000018003eb80     c2_real_time_test.obj
 0003:0000bb90       $SG27981                   000000018003eb90     c2_real_time_test.obj
 0003:0000bbf0       $SG27985                   000000018003ebf0     c2_real_time_test.obj
 0003:0000bc40       $SG27989                   000000018003ec40     c2_real_time_test.obj
 0003:0000bc90       $SG27993                   000000018003ec90     c2_real_time_test.obj
 0003:0000bce0       $SG27997                   000000018003ece0     c2_real_time_test.obj
 0003:0000bd30       $SG28001                   000000018003ed30     c2_real_time_test.obj
 0003:0000bd80       $SG28005                   000000018003ed80     c2_real_time_test.obj
 0003:0000bdd0       $SG28009                   000000018003edd0     c2_real_time_test.obj
 0003:0000be20       $SG28013                   000000018003ee20     c2_real_time_test.obj
 0003:0000be70       $SG28017                   000000018003ee70     c2_real_time_test.obj
 0003:0000bec0       $SG28021                   000000018003eec0     c2_real_time_test.obj
 0003:0000bf10       $SG28025                   000000018003ef10     c2_real_time_test.obj
 0003:0000bf60       $SG28029                   000000018003ef60     c2_real_time_test.obj
 0003:0000bfb0       $SG28033                   000000018003efb0     c2_real_time_test.obj
 0003:0000c000       $SG28037                   000000018003f000     c2_real_time_test.obj
 0003:0000c050       $SG28041                   000000018003f050     c2_real_time_test.obj
 0003:0000c0a0       $SG28045                   000000018003f0a0     c2_real_time_test.obj
 0003:0000c0f0       $SG28049                   000000018003f0f0     c2_real_time_test.obj
 0003:0000c140       $SG28053                   000000018003f140     c2_real_time_test.obj
 0003:0000c190       $SG28057                   000000018003f190     c2_real_time_test.obj
 0003:0000c1e0       $SG28061                   000000018003f1e0     c2_real_time_test.obj
 0003:0000c230       $SG28065                   000000018003f230     c2_real_time_test.obj
 0003:0000c280       $SG28069                   000000018003f280     c2_real_time_test.obj
 0003:0000c2c8       $SG28072                   000000018003f2c8     c2_real_time_test.obj
 0003:0000c2e0       $SG28073                   000000018003f2e0     c2_real_time_test.obj
 0003:0000c328       $SG28076                   000000018003f328     c2_real_time_test.obj
 0003:0000c340       $SG28077                   000000018003f340     c2_real_time_test.obj
 0003:0000c388       $SG28080                   000000018003f388     c2_real_time_test.obj
 0003:0000c3a0       $SG28081                   000000018003f3a0     c2_real_time_test.obj
 0003:0000c3e8       $SG28084                   000000018003f3e8     c2_real_time_test.obj
 0003:0000c400       $SG28085                   000000018003f400     c2_real_time_test.obj
 0003:0000c448       $SG28087                   000000018003f448     c2_real_time_test.obj
 0003:0000c460       $SG28088                   000000018003f460     c2_real_time_test.obj
 0003:0000c4a8       $SG28090                   000000018003f4a8     c2_real_time_test.obj
 0003:0000c4c0       $SG28091                   000000018003f4c0     c2_real_time_test.obj
 0003:0000c508       $SG28094                   000000018003f508     c2_real_time_test.obj
 0003:0000c520       $SG28095                   000000018003f520     c2_real_time_test.obj
 0003:0000c568       $SG28098                   000000018003f568     c2_real_time_test.obj
 0003:0000c580       $SG28099                   000000018003f580     c2_real_time_test.obj
 0003:0000c5c8       $SG28102                   000000018003f5c8     c2_real_time_test.obj
 0003:0000c5e0       $SG28103                   000000018003f5e0     c2_real_time_test.obj
 0003:0000c628       $SG28105                   000000018003f628     c2_real_time_test.obj
 0003:0000c640       $SG28106                   000000018003f640     c2_real_time_test.obj
 0003:0000c688       $SG28109                   000000018003f688     c2_real_time_test.obj
 0003:0000c6a0       $SG28110                   000000018003f6a0     c2_real_time_test.obj
 0003:0000c6e8       $SG28113                   000000018003f6e8     c2_real_time_test.obj
 0003:0000c700       $SG28114                   000000018003f700     c2_real_time_test.obj
 0003:0000c748       $SG28117                   000000018003f748     c2_real_time_test.obj
 0003:0000c760       $SG28118                   000000018003f760     c2_real_time_test.obj
 0003:0000c7a8       $SG28121                   000000018003f7a8     c2_real_time_test.obj
 0003:0000c7c0       $SG28122                   000000018003f7c0     c2_real_time_test.obj
 0003:0000c808       $SG28125                   000000018003f808     c2_real_time_test.obj
 0003:0000c820       $SG28126                   000000018003f820     c2_real_time_test.obj
 0003:0000c868       $SG28129                   000000018003f868     c2_real_time_test.obj
 0003:0000c880       $SG28130                   000000018003f880     c2_real_time_test.obj
 0003:0000c8c8       $SG28133                   000000018003f8c8     c2_real_time_test.obj
 0003:0000c8e0       $SG28134                   000000018003f8e0     c2_real_time_test.obj
 0003:0000c928       $SG28136                   000000018003f928     c2_real_time_test.obj
 0003:0000c940       $SG28137                   000000018003f940     c2_real_time_test.obj
 0003:0000c988       $SG28139                   000000018003f988     c2_real_time_test.obj
 0003:0000c9a0       $SG28140                   000000018003f9a0     c2_real_time_test.obj
 0003:0000c9e8       $SG28142                   000000018003f9e8     c2_real_time_test.obj
 0003:0000ca00       $SG28143                   000000018003fa00     c2_real_time_test.obj
 0003:0000ca48       $SG28145                   000000018003fa48     c2_real_time_test.obj
 0003:0000ca60       $SG28146                   000000018003fa60     c2_real_time_test.obj
 0003:0000caa8       $SG28148                   000000018003faa8     c2_real_time_test.obj
 0003:0000cac0       $SG28149                   000000018003fac0     c2_real_time_test.obj
 0003:0000cb08       $SG28151                   000000018003fb08     c2_real_time_test.obj
 0003:0000cb20       $SG28152                   000000018003fb20     c2_real_time_test.obj
 0003:0000cb80       $SG28154                   000000018003fb80     c2_real_time_test.obj
 0003:0000cb90       $SG28155                   000000018003fb90     c2_real_time_test.obj
 0003:0000cbd8       $SG28157                   000000018003fbd8     c2_real_time_test.obj
 0003:0000cbf0       $SG28158                   000000018003fbf0     c2_real_time_test.obj
 0003:0000cc38       $SG28160                   000000018003fc38     c2_real_time_test.obj
 0003:0000cc50       $SG28161                   000000018003fc50     c2_real_time_test.obj
 0003:0000cc98       $SG28163                   000000018003fc98     c2_real_time_test.obj
 0003:0000ccb0       $SG28164                   000000018003fcb0     c2_real_time_test.obj
 0003:0000ccf8       $SG28166                   000000018003fcf8     c2_real_time_test.obj
 0003:0000cd10       $SG28167                   000000018003fd10     c2_real_time_test.obj
 0003:0000cd70       c2_emlrtMCI                000000018003fd70     c2_real_time_test.obj
 0003:0000cd88       c2_d_emlrtMCI              000000018003fd88     c2_real_time_test.obj
 0003:0000cda0       c2_e_emlrtMCI              000000018003fda0     c2_real_time_test.obj
 0003:0000cdb8       c2_f_emlrtMCI              000000018003fdb8     c2_real_time_test.obj
 0003:0000cdd0       c2_g_emlrtMCI              000000018003fdd0     c2_real_time_test.obj
 0003:0000cde8       c2_h_emlrtMCI              000000018003fde8     c2_real_time_test.obj
 0003:0000ce00       c2_i_emlrtMCI              000000018003fe00     c2_real_time_test.obj
 0003:0000ce18       c2_m_emlrtMCI              000000018003fe18     c2_real_time_test.obj
 0003:0000ce30       c2_q_emlrtMCI              000000018003fe30     c2_real_time_test.obj
 0003:0000ce48       c2_s_emlrtMCI              000000018003fe48     c2_real_time_test.obj
 0003:0000ce60       c2_t_emlrtMCI              000000018003fe60     c2_real_time_test.obj
 0003:0000ce78       c2_emlrtRSI                000000018003fe78     c2_real_time_test.obj
 0003:0000ce90       c2_b_emlrtRSI              000000018003fe90     c2_real_time_test.obj
 0003:0000cea8       c2_c_emlrtRSI              000000018003fea8     c2_real_time_test.obj
 0003:0000cec0       c2_d_emlrtRSI              000000018003fec0     c2_real_time_test.obj
 0003:0000ced8       c2_e_emlrtRSI              000000018003fed8     c2_real_time_test.obj
 0003:0000cef0       c2_f_emlrtRSI              000000018003fef0     c2_real_time_test.obj
 0003:0000cf08       c2_g_emlrtRSI              000000018003ff08     c2_real_time_test.obj
 0003:0000cf20       c2_h_emlrtRSI              000000018003ff20     c2_real_time_test.obj
 0003:0000cf38       c2_i_emlrtRSI              000000018003ff38     c2_real_time_test.obj
 0003:0000cf50       c2_j_emlrtRSI              000000018003ff50     c2_real_time_test.obj
 0003:0000cf68       c2_k_emlrtRSI              000000018003ff68     c2_real_time_test.obj
 0003:0000cf80       c2_s_emlrtRSI              000000018003ff80     c2_real_time_test.obj
 0003:0000cf98       c2_t_emlrtRSI              000000018003ff98     c2_real_time_test.obj
 0003:0000cfb0       c2_u_emlrtRSI              000000018003ffb0     c2_real_time_test.obj
 0003:0000cfc8       c2_v_emlrtRSI              000000018003ffc8     c2_real_time_test.obj
 0003:0000cfe0       c2_w_emlrtRSI              000000018003ffe0     c2_real_time_test.obj
 0003:0000cff8       c2_y_emlrtRSI              000000018003fff8     c2_real_time_test.obj
 0003:0000d010       c2_ab_emlrtRSI             0000000180040010     c2_real_time_test.obj
 0003:0000d028       c2_bb_emlrtRSI             0000000180040028     c2_real_time_test.obj
 0003:0000d040       c2_cb_emlrtRSI             0000000180040040     c2_real_time_test.obj
 0003:0000d058       c2_eb_emlrtRSI             0000000180040058     c2_real_time_test.obj
 0003:0000d070       c2_fb_emlrtRSI             0000000180040070     c2_real_time_test.obj
 0003:0000d088       c2_gb_emlrtRSI             0000000180040088     c2_real_time_test.obj
 0003:0000d0a0       c2_hb_emlrtRSI             00000001800400a0     c2_real_time_test.obj
 0003:0000d0b8       c2_ib_emlrtRSI             00000001800400b8     c2_real_time_test.obj
 0003:0000d0d0       c2_jb_emlrtRSI             00000001800400d0     c2_real_time_test.obj
 0003:0000d0e8       c2_kb_emlrtRSI             00000001800400e8     c2_real_time_test.obj
 0003:0000d100       c2_lb_emlrtRSI             0000000180040100     c2_real_time_test.obj
 0003:0000d118       c2_mb_emlrtRSI             0000000180040118     c2_real_time_test.obj
 0003:0000d130       c2_nb_emlrtRSI             0000000180040130     c2_real_time_test.obj
 0003:0000d148       c2_ob_emlrtRSI             0000000180040148     c2_real_time_test.obj
 0003:0000d160       c2_pb_emlrtRSI             0000000180040160     c2_real_time_test.obj
 0003:0000d178       c2_qb_emlrtRSI             0000000180040178     c2_real_time_test.obj
 0003:0000d190       c2_rb_emlrtRSI             0000000180040190     c2_real_time_test.obj
 0003:0000d1a8       c2_sb_emlrtRSI             00000001800401a8     c2_real_time_test.obj
 0003:0000d1c0       c2_tb_emlrtRSI             00000001800401c0     c2_real_time_test.obj
 0003:0000d1d8       c2_ub_emlrtRSI             00000001800401d8     c2_real_time_test.obj
 0003:0000d1f0       c2_vb_emlrtRSI             00000001800401f0     c2_real_time_test.obj
 0003:0000d208       c2_wb_emlrtRSI             0000000180040208     c2_real_time_test.obj
 0003:0000d220       c2_xb_emlrtRSI             0000000180040220     c2_real_time_test.obj
 0003:0000d238       c2_yb_emlrtRSI             0000000180040238     c2_real_time_test.obj
 0003:0000d250       c2_ac_emlrtRSI             0000000180040250     c2_real_time_test.obj
 0003:0000d268       c2_bc_emlrtRSI             0000000180040268     c2_real_time_test.obj
 0003:0000d280       c2_cc_emlrtRSI             0000000180040280     c2_real_time_test.obj
 0003:0000d298       c2_dc_emlrtRSI             0000000180040298     c2_real_time_test.obj
 0003:0000d2b0       c2_ec_emlrtRSI             00000001800402b0     c2_real_time_test.obj
 0003:0000d2c8       c2_fc_emlrtRSI             00000001800402c8     c2_real_time_test.obj
 0003:0000d2e0       c2_gc_emlrtRSI             00000001800402e0     c2_real_time_test.obj
 0003:0000d2f8       c2_hc_emlrtRSI             00000001800402f8     c2_real_time_test.obj
 0003:0000d310       c2_ic_emlrtRSI             0000000180040310     c2_real_time_test.obj
 0003:0000d328       c2_jc_emlrtRSI             0000000180040328     c2_real_time_test.obj
 0003:0000d340       c2_kc_emlrtRSI             0000000180040340     c2_real_time_test.obj
 0003:0000d358       c2_lc_emlrtRSI             0000000180040358     c2_real_time_test.obj
 0003:0000d370       c2_mc_emlrtRSI             0000000180040370     c2_real_time_test.obj
 0003:0000d388       c2_nc_emlrtRSI             0000000180040388     c2_real_time_test.obj
 0003:0000d3a0       c2_oc_emlrtRSI             00000001800403a0     c2_real_time_test.obj
 0003:0000d3b8       c2_pc_emlrtRSI             00000001800403b8     c2_real_time_test.obj
 0003:0000d3d0       c2_qc_emlrtRSI             00000001800403d0     c2_real_time_test.obj
 0003:0000d3e8       c2_rc_emlrtRSI             00000001800403e8     c2_real_time_test.obj
 0003:0000d400       c2_sc_emlrtRSI             0000000180040400     c2_real_time_test.obj
 0003:0000d418       c2_tc_emlrtRSI             0000000180040418     c2_real_time_test.obj
 0003:0000d430       c2_uc_emlrtRSI             0000000180040430     c2_real_time_test.obj
 0003:0000d448       c2_vc_emlrtRSI             0000000180040448     c2_real_time_test.obj
 0003:0000d460       c2_wc_emlrtRSI             0000000180040460     c2_real_time_test.obj
 0003:0000d478       c2_xc_emlrtRSI             0000000180040478     c2_real_time_test.obj
 0003:0000d490       c2_yc_emlrtRSI             0000000180040490     c2_real_time_test.obj
 0003:0000d4a8       c2_ad_emlrtRSI             00000001800404a8     c2_real_time_test.obj
 0003:0000d4c0       c2_od_emlrtRSI             00000001800404c0     c2_real_time_test.obj
 0003:0000d4d8       c2_pd_emlrtRSI             00000001800404d8     c2_real_time_test.obj
 0003:0000d4f0       c2_qd_emlrtRSI             00000001800404f0     c2_real_time_test.obj
 0003:0000d508       c2_rd_emlrtRSI             0000000180040508     c2_real_time_test.obj
 0003:0000d520       c2_sd_emlrtRSI             0000000180040520     c2_real_time_test.obj
 0003:0000d538       c2_gf_emlrtRSI             0000000180040538     c2_real_time_test.obj
 0003:0000d550       c2_hf_emlrtRSI             0000000180040550     c2_real_time_test.obj
 0003:0000d568       c2_if_emlrtRSI             0000000180040568     c2_real_time_test.obj
 0003:0000d580       c2_pf_emlrtRSI             0000000180040580     c2_real_time_test.obj
 0003:0000d598       c2_qf_emlrtRSI             0000000180040598     c2_real_time_test.obj
 0003:0000d5b0       c2_ki_emlrtRSI             00000001800405b0     c2_real_time_test.obj
 0003:0000d5c8       c2_li_emlrtRSI             00000001800405c8     c2_real_time_test.obj
 0003:0000d5e0       c2_mi_emlrtRSI             00000001800405e0     c2_real_time_test.obj
 0003:0000d5f8       c2_ni_emlrtRSI             00000001800405f8     c2_real_time_test.obj
 0003:0000d610       c2_oi_emlrtRSI             0000000180040610     c2_real_time_test.obj
 0003:0000d628       c2_pi_emlrtRSI             0000000180040628     c2_real_time_test.obj
 0003:0000d640       c2_qi_emlrtRSI             0000000180040640     c2_real_time_test.obj
 0003:0000d658       c2_ri_emlrtRSI             0000000180040658     c2_real_time_test.obj
 0003:0000d670       c2_si_emlrtRSI             0000000180040670     c2_real_time_test.obj
 0003:0000d688       c2_ti_emlrtRSI             0000000180040688     c2_real_time_test.obj
 0003:0000d6a0       c2_ui_emlrtRSI             00000001800406a0     c2_real_time_test.obj
 0003:0000d6b8       c2_vi_emlrtRSI             00000001800406b8     c2_real_time_test.obj
 0003:0000d6d0       c2_wi_emlrtRSI             00000001800406d0     c2_real_time_test.obj
 0003:0000d6e8       c2_xi_emlrtRSI             00000001800406e8     c2_real_time_test.obj
 0003:0000d700       c2_yi_emlrtRSI             0000000180040700     c2_real_time_test.obj
 0003:0000d718       c2_aj_emlrtRSI             0000000180040718     c2_real_time_test.obj
 0003:0000d730       c2_bj_emlrtRSI             0000000180040730     c2_real_time_test.obj
 0003:0000d748       c2_cj_emlrtRSI             0000000180040748     c2_real_time_test.obj
 0003:0000d760       c2_dj_emlrtRSI             0000000180040760     c2_real_time_test.obj
 0003:0000d778       c2_ej_emlrtRSI             0000000180040778     c2_real_time_test.obj
 0003:0000d790       c2_fj_emlrtRSI             0000000180040790     c2_real_time_test.obj
 0003:0000d7a8       c2_gj_emlrtRSI             00000001800407a8     c2_real_time_test.obj
 0003:0000d7c0       c2_hj_emlrtRSI             00000001800407c0     c2_real_time_test.obj
 0003:0000d7d8       c2_ij_emlrtRSI             00000001800407d8     c2_real_time_test.obj
 0003:0000d7f0       c2_jj_emlrtRSI             00000001800407f0     c2_real_time_test.obj
 0003:0000d808       c2_kj_emlrtRSI             0000000180040808     c2_real_time_test.obj
 0003:0000d820       c2_lj_emlrtRSI             0000000180040820     c2_real_time_test.obj
 0003:0000d838       c2_mj_emlrtRSI             0000000180040838     c2_real_time_test.obj
 0003:0000d850       c2_nj_emlrtRSI             0000000180040850     c2_real_time_test.obj
 0003:0000d868       c2_oj_emlrtRSI             0000000180040868     c2_real_time_test.obj
 0003:0000d880       c2_pj_emlrtRSI             0000000180040880     c2_real_time_test.obj
 0003:0000d898       c2_qj_emlrtRSI             0000000180040898     c2_real_time_test.obj
 0003:0000d8b0       c2_rj_emlrtRSI             00000001800408b0     c2_real_time_test.obj
 0003:0000d8c8       c2_sj_emlrtRSI             00000001800408c8     c2_real_time_test.obj
 0003:0000d8e0       c2_tj_emlrtRSI             00000001800408e0     c2_real_time_test.obj
 0003:0000d8f8       c2_uj_emlrtRSI             00000001800408f8     c2_real_time_test.obj
 0003:0000d910       c2_vj_emlrtRSI             0000000180040910     c2_real_time_test.obj
 0003:0000d928       c2_wj_emlrtRSI             0000000180040928     c2_real_time_test.obj
 0003:0000d940       c2_xj_emlrtRSI             0000000180040940     c2_real_time_test.obj
 0003:0000d958       c2_yj_emlrtRSI             0000000180040958     c2_real_time_test.obj
 0003:0000d970       c2_ak_emlrtRSI             0000000180040970     c2_real_time_test.obj
 0003:0000d988       c2_bk_emlrtRSI             0000000180040988     c2_real_time_test.obj
 0003:0000d9a0       c2_ck_emlrtRSI             00000001800409a0     c2_real_time_test.obj
 0003:0000d9b8       c2_dk_emlrtRSI             00000001800409b8     c2_real_time_test.obj
 0003:0000d9d0       c2_ek_emlrtRSI             00000001800409d0     c2_real_time_test.obj
 0003:0000d9e8       c2_fk_emlrtRSI             00000001800409e8     c2_real_time_test.obj
 0003:0000da00       c2_emlrtRTEI               0000000180040a00     c2_real_time_test.obj
 0003:0000da18       c2_b_emlrtRTEI             0000000180040a18     c2_real_time_test.obj
 0003:0000da30       c2_c_emlrtRTEI             0000000180040a30     c2_real_time_test.obj
 0003:0000da48       c2_d_emlrtRTEI             0000000180040a48     c2_real_time_test.obj
 0003:0000da60       c2_e_emlrtRTEI             0000000180040a60     c2_real_time_test.obj
 0003:0000da78       c2_f_emlrtRTEI             0000000180040a78     c2_real_time_test.obj
 0003:0000da90       c2_g_emlrtRTEI             0000000180040a90     c2_real_time_test.obj
 0003:0000daa8       c2_h_emlrtRTEI             0000000180040aa8     c2_real_time_test.obj
 0003:0000dac0       c2_i_emlrtRTEI             0000000180040ac0     c2_real_time_test.obj
 0003:0000dad8       c2_j_emlrtRTEI             0000000180040ad8     c2_real_time_test.obj
 0003:0000daf0       c2_k_emlrtRTEI             0000000180040af0     c2_real_time_test.obj
 0003:0000db08       c2_l_emlrtRTEI             0000000180040b08     c2_real_time_test.obj
 0003:0000db20       c2_m_emlrtRTEI             0000000180040b20     c2_real_time_test.obj
 0003:0000db38       c2_n_emlrtRTEI             0000000180040b38     c2_real_time_test.obj
 0003:0000db50       c2_o_emlrtRTEI             0000000180040b50     c2_real_time_test.obj
 0003:0000db68       c2_p_emlrtRTEI             0000000180040b68     c2_real_time_test.obj
 0003:0000db80       c2_q_emlrtRTEI             0000000180040b80     c2_real_time_test.obj
 0003:0000db98       c2_r_emlrtRTEI             0000000180040b98     c2_real_time_test.obj
 0003:0000dbb0       c2_s_emlrtRTEI             0000000180040bb0     c2_real_time_test.obj
 0003:0000dbc8       c2_t_emlrtRTEI             0000000180040bc8     c2_real_time_test.obj
 0003:0000dbe0       c2_u_emlrtRTEI             0000000180040be0     c2_real_time_test.obj
 0003:0000dbf8       c2_v_emlrtRTEI             0000000180040bf8     c2_real_time_test.obj
 0003:0000dc10       c2_w_emlrtRTEI             0000000180040c10     c2_real_time_test.obj
 0003:0000dc28       c2_x_emlrtRTEI             0000000180040c28     c2_real_time_test.obj
 0003:0000dc40       c2_y_emlrtRTEI             0000000180040c40     c2_real_time_test.obj
 0003:0000dc58       c2_ab_emlrtRTEI            0000000180040c58     c2_real_time_test.obj
 0003:0000dc70       c2_bb_emlrtRTEI            0000000180040c70     c2_real_time_test.obj
 0003:0000dc88       c2_cb_emlrtRTEI            0000000180040c88     c2_real_time_test.obj
 0003:0000dca0       c2_db_emlrtRTEI            0000000180040ca0     c2_real_time_test.obj
 0003:0000dcb8       c2_eb_emlrtRTEI            0000000180040cb8     c2_real_time_test.obj
 0003:0000dcd0       c2_fb_emlrtRTEI            0000000180040cd0     c2_real_time_test.obj
 0003:0000dce8       c2_gb_emlrtRTEI            0000000180040ce8     c2_real_time_test.obj
 0003:0000dd00       c2_hb_emlrtRTEI            0000000180040d00     c2_real_time_test.obj
 0003:0000dd18       c2_ib_emlrtRTEI            0000000180040d18     c2_real_time_test.obj
 0003:0000dd30       c2_jb_emlrtRTEI            0000000180040d30     c2_real_time_test.obj
 0003:0000dd48       c2_kb_emlrtRTEI            0000000180040d48     c2_real_time_test.obj
 0003:0000dd60       c2_lb_emlrtRTEI            0000000180040d60     c2_real_time_test.obj
 0003:0000dd78       c2_mb_emlrtRTEI            0000000180040d78     c2_real_time_test.obj
 0003:0000dd90       c2_nb_emlrtRTEI            0000000180040d90     c2_real_time_test.obj
 0003:0000dda8       c2_ob_emlrtRTEI            0000000180040da8     c2_real_time_test.obj
 0003:0000ddc0       c2_pb_emlrtRTEI            0000000180040dc0     c2_real_time_test.obj
 0003:0000ddd8       c2_qb_emlrtRTEI            0000000180040dd8     c2_real_time_test.obj
 0003:0000ddf0       c2_rb_emlrtRTEI            0000000180040df0     c2_real_time_test.obj
 0003:0000de08       c2_sb_emlrtRTEI            0000000180040e08     c2_real_time_test.obj
 0003:0000de20       c2_tb_emlrtRTEI            0000000180040e20     c2_real_time_test.obj
 0003:0000de38       c2_ub_emlrtRTEI            0000000180040e38     c2_real_time_test.obj
 0003:0000de50       c2_vb_emlrtRTEI            0000000180040e50     c2_real_time_test.obj
 0003:0000de68       c2_wb_emlrtRTEI            0000000180040e68     c2_real_time_test.obj
 0003:0000de80       c2_xb_emlrtRTEI            0000000180040e80     c2_real_time_test.obj
 0003:0000de98       c2_yb_emlrtRTEI            0000000180040e98     c2_real_time_test.obj
 0003:0000deb0       c2_ac_emlrtRTEI            0000000180040eb0     c2_real_time_test.obj
 0003:0000dec8       c2_bc_emlrtRTEI            0000000180040ec8     c2_real_time_test.obj
 0003:0000dee0       c2_cc_emlrtRTEI            0000000180040ee0     c2_real_time_test.obj
 0003:0000def8       c2_dc_emlrtRTEI            0000000180040ef8     c2_real_time_test.obj
 0003:0000df10       c2_ec_emlrtRTEI            0000000180040f10     c2_real_time_test.obj
 0003:0000df28       c2_fc_emlrtRTEI            0000000180040f28     c2_real_time_test.obj
 0003:0000df40       c2_gc_emlrtRTEI            0000000180040f40     c2_real_time_test.obj
 0003:0000df58       c2_hc_emlrtRTEI            0000000180040f58     c2_real_time_test.obj
 0003:0000df70       c2_ic_emlrtRTEI            0000000180040f70     c2_real_time_test.obj
 0003:0000df88       c2_jc_emlrtRTEI            0000000180040f88     c2_real_time_test.obj
 0003:0000dfa0       c2_kc_emlrtRTEI            0000000180040fa0     c2_real_time_test.obj
 0003:0000dfb8       c2_lc_emlrtRTEI            0000000180040fb8     c2_real_time_test.obj
 0003:0000dfd0       c2_mc_emlrtRTEI            0000000180040fd0     c2_real_time_test.obj
 0003:0000dfe8       c2_nc_emlrtRTEI            0000000180040fe8     c2_real_time_test.obj
 0003:0000e000       c2_oc_emlrtRTEI            0000000180041000     c2_real_time_test.obj
 0003:0000e018       c2_pc_emlrtRTEI            0000000180041018     c2_real_time_test.obj
 0003:0000e030       c2_qc_emlrtRTEI            0000000180041030     c2_real_time_test.obj
 0003:0000e048       c2_rc_emlrtRTEI            0000000180041048     c2_real_time_test.obj
 0003:0000e060       c2_sc_emlrtRTEI            0000000180041060     c2_real_time_test.obj
 0003:0000e078       c2_tc_emlrtRTEI            0000000180041078     c2_real_time_test.obj
 0003:0000e090       c2_uc_emlrtRTEI            0000000180041090     c2_real_time_test.obj
 0003:0000e0a8       c2_vc_emlrtRTEI            00000001800410a8     c2_real_time_test.obj
 0003:0000e0c0       c2_wc_emlrtRTEI            00000001800410c0     c2_real_time_test.obj
 0003:0000e0d8       c2_xc_emlrtRTEI            00000001800410d8     c2_real_time_test.obj
 0003:0000e0f0       c2_yc_emlrtRTEI            00000001800410f0     c2_real_time_test.obj
 0003:0000e108       c2_ad_emlrtRTEI            0000000180041108     c2_real_time_test.obj
 0003:0000e120       c2_bd_emlrtRTEI            0000000180041120     c2_real_time_test.obj
 0003:0000e138       c2_cd_emlrtRTEI            0000000180041138     c2_real_time_test.obj
 0003:0000e150       c2_dd_emlrtRTEI            0000000180041150     c2_real_time_test.obj
 0003:0000e168       c2_ed_emlrtRTEI            0000000180041168     c2_real_time_test.obj
 0003:0000e180       c2_fd_emlrtRTEI            0000000180041180     c2_real_time_test.obj
 0003:0000e198       c2_gd_emlrtRTEI            0000000180041198     c2_real_time_test.obj
 0003:0000e1b0       c2_hd_emlrtRTEI            00000001800411b0     c2_real_time_test.obj
 0003:0000e1c8       c2_id_emlrtRTEI            00000001800411c8     c2_real_time_test.obj
 0003:0000e1e0       c2_jd_emlrtRTEI            00000001800411e0     c2_real_time_test.obj
 0003:0000e1f8       c2_emlrtBCI                00000001800411f8     c2_real_time_test.obj
 0003:0000e228       c2_b_emlrtBCI              0000000180041228     c2_real_time_test.obj
 0003:0000e258       c2_c_emlrtBCI              0000000180041258     c2_real_time_test.obj
 0003:0000e288       c2_d_emlrtBCI              0000000180041288     c2_real_time_test.obj
 0003:0000e2b8       c2_emlrtDCI                00000001800412b8     c2_real_time_test.obj
 0003:0000e2d8       c2_e_emlrtBCI              00000001800412d8     c2_real_time_test.obj
 0003:0000e308       c2_f_emlrtBCI              0000000180041308     c2_real_time_test.obj
 0003:0000e338       c2_g_emlrtBCI              0000000180041338     c2_real_time_test.obj
 0003:0000e368       c2_h_emlrtBCI              0000000180041368     c2_real_time_test.obj
 0003:0000e398       c2_i_emlrtBCI              0000000180041398     c2_real_time_test.obj
 0003:0000e3c8       c2_j_emlrtBCI              00000001800413c8     c2_real_time_test.obj
 0003:0000e3f8       c2_k_emlrtBCI              00000001800413f8     c2_real_time_test.obj
 0003:0000e428       c2_l_emlrtBCI              0000000180041428     c2_real_time_test.obj
 0003:0000e458       c2_b_emlrtDCI              0000000180041458     c2_real_time_test.obj
 0003:0000e478       c2_m_emlrtBCI              0000000180041478     c2_real_time_test.obj
 0003:0000e4a8       c2_n_emlrtBCI              00000001800414a8     c2_real_time_test.obj
 0003:0000e4d8       c2_o_emlrtBCI              00000001800414d8     c2_real_time_test.obj
 0003:0000e508       c2_p_emlrtBCI              0000000180041508     c2_real_time_test.obj
 0003:0000e538       c2_q_emlrtBCI              0000000180041538     c2_real_time_test.obj
 0003:0000e568       c2_r_emlrtBCI              0000000180041568     c2_real_time_test.obj
 0003:0000e598       c2_s_emlrtBCI              0000000180041598     c2_real_time_test.obj
 0003:0000e5c8       c2_t_emlrtBCI              00000001800415c8     c2_real_time_test.obj
 0003:0000e5f8       c2_u_emlrtBCI              00000001800415f8     c2_real_time_test.obj
 0003:0000e628       c2_v_emlrtBCI              0000000180041628     c2_real_time_test.obj
 0003:0000e658       c2_w_emlrtBCI              0000000180041658     c2_real_time_test.obj
 0003:0000e688       c2_x_emlrtBCI              0000000180041688     c2_real_time_test.obj
 0003:0000e6b8       c2_y_emlrtBCI              00000001800416b8     c2_real_time_test.obj
 0003:0000e6e8       c2_ab_emlrtBCI             00000001800416e8     c2_real_time_test.obj
 0003:0000e718       c2_bb_emlrtBCI             0000000180041718     c2_real_time_test.obj
 0003:0000e748       c2_cb_emlrtBCI             0000000180041748     c2_real_time_test.obj
 0003:0000e778       c2_db_emlrtBCI             0000000180041778     c2_real_time_test.obj
 0003:0000e7a8       c2_c_emlrtDCI              00000001800417a8     c2_real_time_test.obj
 0003:0000e7c8       c2_eb_emlrtBCI             00000001800417c8     c2_real_time_test.obj
 0003:0000e7f8       c2_fb_emlrtBCI             00000001800417f8     c2_real_time_test.obj
 0003:0000e828       c2_gb_emlrtBCI             0000000180041828     c2_real_time_test.obj
 0003:0000e858       c2_hb_emlrtBCI             0000000180041858     c2_real_time_test.obj
 0003:0000e888       c2_d_emlrtDCI              0000000180041888     c2_real_time_test.obj
 0003:0000e8a8       c2_ib_emlrtBCI             00000001800418a8     c2_real_time_test.obj
 0003:0000e8d8       c2_jb_emlrtBCI             00000001800418d8     c2_real_time_test.obj
 0003:0000e908       c2_kb_emlrtBCI             0000000180041908     c2_real_time_test.obj
 0003:0000e938       c2_lb_emlrtBCI             0000000180041938     c2_real_time_test.obj
 0003:0000e968       c2_mb_emlrtBCI             0000000180041968     c2_real_time_test.obj
 0003:0000e998       c2_nb_emlrtBCI             0000000180041998     c2_real_time_test.obj
 0003:0000e9c8       c2_ob_emlrtBCI             00000001800419c8     c2_real_time_test.obj
 0003:0000e9f8       c2_pb_emlrtBCI             00000001800419f8     c2_real_time_test.obj
 0003:0000ea28       c2_qb_emlrtBCI             0000000180041a28     c2_real_time_test.obj
 0003:0000ea58       c2_rb_emlrtBCI             0000000180041a58     c2_real_time_test.obj
 0003:0000ea88       c2_sb_emlrtBCI             0000000180041a88     c2_real_time_test.obj
 0003:0000eab8       c2_tb_emlrtBCI             0000000180041ab8     c2_real_time_test.obj
 0003:0000eae8       c2_ub_emlrtBCI             0000000180041ae8     c2_real_time_test.obj
 0003:0000eb18       c2_vb_emlrtBCI             0000000180041b18     c2_real_time_test.obj
 0003:0000eb48       c2_wb_emlrtBCI             0000000180041b48     c2_real_time_test.obj
 0003:0000eb78       c2_xb_emlrtBCI             0000000180041b78     c2_real_time_test.obj
 0003:0000eba8       c2_yb_emlrtBCI             0000000180041ba8     c2_real_time_test.obj
 0003:0000ebd8       c2_ac_emlrtBCI             0000000180041bd8     c2_real_time_test.obj
 0003:0000ec08       c2_bc_emlrtBCI             0000000180041c08     c2_real_time_test.obj
 0003:0000ec38       c2_cc_emlrtBCI             0000000180041c38     c2_real_time_test.obj
 0003:0000ec68       c2_dc_emlrtBCI             0000000180041c68     c2_real_time_test.obj
 0003:0000ec98       c2_ec_emlrtBCI             0000000180041c98     c2_real_time_test.obj
 0003:0000ecc8       c2_fc_emlrtBCI             0000000180041cc8     c2_real_time_test.obj
 0003:0000ecf8       c2_gc_emlrtBCI             0000000180041cf8     c2_real_time_test.obj
 0003:0000ed28       c2_hc_emlrtBCI             0000000180041d28     c2_real_time_test.obj
 0003:0000ed58       c2_ic_emlrtBCI             0000000180041d58     c2_real_time_test.obj
 0003:0000ed88       c2_jc_emlrtBCI             0000000180041d88     c2_real_time_test.obj
 0003:0000edb8       c2_e_emlrtDCI              0000000180041db8     c2_real_time_test.obj
 0003:0000edd8       c2_f_emlrtDCI              0000000180041dd8     c2_real_time_test.obj
 0003:0000edf8       c2_kc_emlrtBCI             0000000180041df8     c2_real_time_test.obj
 0003:0000ee28       c2_lc_emlrtBCI             0000000180041e28     c2_real_time_test.obj
 0003:0000ee58       c2_mc_emlrtBCI             0000000180041e58     c2_real_time_test.obj
 0003:0000ee88       c2_nc_emlrtBCI             0000000180041e88     c2_real_time_test.obj
 0003:0000eeb8       c2_oc_emlrtBCI             0000000180041eb8     c2_real_time_test.obj
 0003:0000eee8       c2_pc_emlrtBCI             0000000180041ee8     c2_real_time_test.obj
 0003:0000ef18       c2_qc_emlrtBCI             0000000180041f18     c2_real_time_test.obj
 0003:0000ef48       c2_rc_emlrtBCI             0000000180041f48     c2_real_time_test.obj
 0003:0000ef78       c2_sc_emlrtBCI             0000000180041f78     c2_real_time_test.obj
 0003:0000efa8       c2_tc_emlrtBCI             0000000180041fa8     c2_real_time_test.obj
 0003:0000efd8       c2_uc_emlrtBCI             0000000180041fd8     c2_real_time_test.obj
 0003:0000f008       c2_vc_emlrtBCI             0000000180042008     c2_real_time_test.obj
 0003:0000f038       c2_wc_emlrtBCI             0000000180042038     c2_real_time_test.obj
 0003:0000f068       c2_xc_emlrtBCI             0000000180042068     c2_real_time_test.obj
 0003:0000f098       c2_yc_emlrtBCI             0000000180042098     c2_real_time_test.obj
 0003:0000f0c8       c2_ad_emlrtBCI             00000001800420c8     c2_real_time_test.obj
 0003:0000f0f8       c2_bd_emlrtBCI             00000001800420f8     c2_real_time_test.obj
 0003:0000f128       c2_cd_emlrtBCI             0000000180042128     c2_real_time_test.obj
 0003:0000f158       c2_dd_emlrtBCI             0000000180042158     c2_real_time_test.obj
 0003:0000f188       c2_ed_emlrtBCI             0000000180042188     c2_real_time_test.obj
 0003:0000f1b8       c2_fd_emlrtBCI             00000001800421b8     c2_real_time_test.obj
 0003:0000f1e8       c2_gd_emlrtBCI             00000001800421e8     c2_real_time_test.obj
 0003:0000f218       c2_hd_emlrtBCI             0000000180042218     c2_real_time_test.obj
 0003:0000f248       c2_id_emlrtBCI             0000000180042248     c2_real_time_test.obj
 0003:0000f278       c2_jd_emlrtBCI             0000000180042278     c2_real_time_test.obj
 0003:0000f2a8       c2_kd_emlrtBCI             00000001800422a8     c2_real_time_test.obj
 0003:0000f2d8       c2_ld_emlrtBCI             00000001800422d8     c2_real_time_test.obj
 0003:0000f308       c2_md_emlrtBCI             0000000180042308     c2_real_time_test.obj
 0003:0000f338       c2_nd_emlrtBCI             0000000180042338     c2_real_time_test.obj
 0003:0000f368       c2_od_emlrtBCI             0000000180042368     c2_real_time_test.obj
 0003:0000f398       c2_pd_emlrtBCI             0000000180042398     c2_real_time_test.obj
 0003:0000f3c8       c2_qd_emlrtBCI             00000001800423c8     c2_real_time_test.obj
 0003:0000f3f8       c2_rd_emlrtBCI             00000001800423f8     c2_real_time_test.obj
 0003:0000f428       c2_sd_emlrtBCI             0000000180042428     c2_real_time_test.obj
 0003:0000f458       c2_td_emlrtBCI             0000000180042458     c2_real_time_test.obj
 0003:0000f488       c2_ud_emlrtBCI             0000000180042488     c2_real_time_test.obj
 0003:0000f4b8       c2_vd_emlrtBCI             00000001800424b8     c2_real_time_test.obj
 0003:0000f4e8       c2_wd_emlrtBCI             00000001800424e8     c2_real_time_test.obj
 0003:0000f518       c2_xd_emlrtBCI             0000000180042518     c2_real_time_test.obj
 0003:0000f548       c2_yd_emlrtBCI             0000000180042548     c2_real_time_test.obj
 0003:0000f578       c2_ae_emlrtBCI             0000000180042578     c2_real_time_test.obj
 0003:0000f5a8       c2_be_emlrtBCI             00000001800425a8     c2_real_time_test.obj
 0003:0000f5d8       c2_ce_emlrtBCI             00000001800425d8     c2_real_time_test.obj
 0003:0000f608       c2_de_emlrtBCI             0000000180042608     c2_real_time_test.obj
 0003:0000f638       c2_ee_emlrtBCI             0000000180042638     c2_real_time_test.obj
 0003:0000f668       c2_fe_emlrtBCI             0000000180042668     c2_real_time_test.obj
 0003:0000f698       c2_ge_emlrtBCI             0000000180042698     c2_real_time_test.obj
 0003:0000f6c8       c2_he_emlrtBCI             00000001800426c8     c2_real_time_test.obj
 0003:0000f6f8       c2_ie_emlrtBCI             00000001800426f8     c2_real_time_test.obj
 0003:0000f728       c2_je_emlrtBCI             0000000180042728     c2_real_time_test.obj
 0003:0000f758       c2_ke_emlrtBCI             0000000180042758     c2_real_time_test.obj
 0003:0000f788       c2_le_emlrtBCI             0000000180042788     c2_real_time_test.obj
 0003:0000f7b8       c2_me_emlrtBCI             00000001800427b8     c2_real_time_test.obj
 0003:0000f7e8       c2_ne_emlrtBCI             00000001800427e8     c2_real_time_test.obj
 0003:0000f818       c2_oe_emlrtBCI             0000000180042818     c2_real_time_test.obj
 0003:0000f848       c2_pe_emlrtBCI             0000000180042848     c2_real_time_test.obj
 0003:0000f878       c2_kd_emlrtRTEI            0000000180042878     c2_real_time_test.obj
 0003:0000f890       c2_qe_emlrtBCI             0000000180042890     c2_real_time_test.obj
 0003:0000f8c0       c2_re_emlrtBCI             00000001800428c0     c2_real_time_test.obj
 0003:0000f8f0       c2_g_emlrtDCI              00000001800428f0     c2_real_time_test.obj
 0003:0000f910       c2_h_emlrtDCI              0000000180042910     c2_real_time_test.obj
 0003:0000f930       c2_se_emlrtBCI             0000000180042930     c2_real_time_test.obj
 0003:0000f960       c2_te_emlrtBCI             0000000180042960     c2_real_time_test.obj
 0003:0000f990       c2_ue_emlrtBCI             0000000180042990     c2_real_time_test.obj
 0003:0000f9c0       c2_i_emlrtDCI              00000001800429c0     c2_real_time_test.obj
 0003:0000f9e0       c2_ve_emlrtBCI             00000001800429e0     c2_real_time_test.obj
 0003:0000fa10       c2_we_emlrtBCI             0000000180042a10     c2_real_time_test.obj
 0003:0000fa40       c2_xe_emlrtBCI             0000000180042a40     c2_real_time_test.obj
 0003:0000fa70       c2_ye_emlrtBCI             0000000180042a70     c2_real_time_test.obj
 0003:0000faa0       c2_af_emlrtBCI             0000000180042aa0     c2_real_time_test.obj
 0003:0000fad0       c2_bf_emlrtBCI             0000000180042ad0     c2_real_time_test.obj
 0003:0000fb00       c2_cf_emlrtBCI             0000000180042b00     c2_real_time_test.obj
 0003:0000fb30       c2_df_emlrtBCI             0000000180042b30     c2_real_time_test.obj
 0003:0000fb60       c2_ef_emlrtBCI             0000000180042b60     c2_real_time_test.obj
 0003:0000fb90       c2_ff_emlrtBCI             0000000180042b90     c2_real_time_test.obj
 0003:0000fbc0       c2_gf_emlrtBCI             0000000180042bc0     c2_real_time_test.obj
 0003:0000fbf0       c2_hf_emlrtBCI             0000000180042bf0     c2_real_time_test.obj
 0003:0000fc20       c2_if_emlrtBCI             0000000180042c20     c2_real_time_test.obj
 0003:0000fc50       c2_jf_emlrtBCI             0000000180042c50     c2_real_time_test.obj
 0003:0000fc80       c2_kf_emlrtBCI             0000000180042c80     c2_real_time_test.obj
 0003:0000fcb0       c2_lf_emlrtBCI             0000000180042cb0     c2_real_time_test.obj
 0003:0000fce0       c2_mf_emlrtBCI             0000000180042ce0     c2_real_time_test.obj
 0003:0000fd10       c2_nf_emlrtBCI             0000000180042d10     c2_real_time_test.obj
 0003:0000fd40       c2_of_emlrtBCI             0000000180042d40     c2_real_time_test.obj
 0003:0000fd70       c2_pf_emlrtBCI             0000000180042d70     c2_real_time_test.obj
 0003:0000fda0       c2_qf_emlrtBCI             0000000180042da0     c2_real_time_test.obj
 0003:0000fdd0       c2_rf_emlrtBCI             0000000180042dd0     c2_real_time_test.obj
 0003:0000fe00       c2_sf_emlrtBCI             0000000180042e00     c2_real_time_test.obj
 0003:0000fe30       c2_tf_emlrtBCI             0000000180042e30     c2_real_time_test.obj
 0003:0000fe60       c2_uf_emlrtBCI             0000000180042e60     c2_real_time_test.obj
 0003:0000fe90       c2_vf_emlrtBCI             0000000180042e90     c2_real_time_test.obj
 0003:0000fec0       c2_wf_emlrtBCI             0000000180042ec0     c2_real_time_test.obj
 0003:0000fef0       c2_xf_emlrtBCI             0000000180042ef0     c2_real_time_test.obj
 0003:0000ff20       c2_yf_emlrtBCI             0000000180042f20     c2_real_time_test.obj
 0003:0000ff50       c2_ag_emlrtBCI             0000000180042f50     c2_real_time_test.obj
 0003:0000ff80       c2_bg_emlrtBCI             0000000180042f80     c2_real_time_test.obj
 0003:0000ffb0       c2_cg_emlrtBCI             0000000180042fb0     c2_real_time_test.obj
 0003:0000ffe0       c2_dg_emlrtBCI             0000000180042fe0     c2_real_time_test.obj
 0003:00010010       c2_eg_emlrtBCI             0000000180043010     c2_real_time_test.obj
 0003:00010040       c2_fg_emlrtBCI             0000000180043040     c2_real_time_test.obj
 0003:00010070       c2_gg_emlrtBCI             0000000180043070     c2_real_time_test.obj
 0003:000100a0       c2_hg_emlrtBCI             00000001800430a0     c2_real_time_test.obj
 0003:000100d0       c2_ig_emlrtBCI             00000001800430d0     c2_real_time_test.obj
 0003:00010100       c2_jg_emlrtBCI             0000000180043100     c2_real_time_test.obj
 0003:00010130       c2_j_emlrtDCI              0000000180043130     c2_real_time_test.obj
 0003:00010150       c2_k_emlrtDCI              0000000180043150     c2_real_time_test.obj
 0003:00010170       c2_kg_emlrtBCI             0000000180043170     c2_real_time_test.obj
 0003:000101a0       c2_lg_emlrtBCI             00000001800431a0     c2_real_time_test.obj
 0003:000101d0       c2_mg_emlrtBCI             00000001800431d0     c2_real_time_test.obj
 0003:00010200       c2_l_emlrtDCI              0000000180043200     c2_real_time_test.obj
 0003:00010220       c2_ng_emlrtBCI             0000000180043220     c2_real_time_test.obj
 0003:00010250       c2_og_emlrtBCI             0000000180043250     c2_real_time_test.obj
 0003:00010280       c2_pg_emlrtBCI             0000000180043280     c2_real_time_test.obj
 0003:000102b0       c2_qg_emlrtBCI             00000001800432b0     c2_real_time_test.obj
 0003:000102e0       c2_rg_emlrtBCI             00000001800432e0     c2_real_time_test.obj
 0003:00010310       c2_sg_emlrtBCI             0000000180043310     c2_real_time_test.obj
 0003:00010340       c2_tg_emlrtBCI             0000000180043340     c2_real_time_test.obj
 0003:00010370       c2_gk_emlrtRSI             0000000180043370     c2_real_time_test.obj
 0003:00010388       c2_hk_emlrtRSI             0000000180043388     c2_real_time_test.obj
 0003:000103a0       c2_ik_emlrtRSI             00000001800433a0     c2_real_time_test.obj
 0003:000103b8       c2_jk_emlrtRSI             00000001800433b8     c2_real_time_test.obj
 0003:000103d0       c2_kk_emlrtRSI             00000001800433d0     c2_real_time_test.obj
 0003:000103e8       c2_lk_emlrtRSI             00000001800433e8     c2_real_time_test.obj
 0003:00010400       c2_mk_emlrtRSI             0000000180043400     c2_real_time_test.obj
 0003:00010418       c2_nk_emlrtRSI             0000000180043418     c2_real_time_test.obj
 0003:00010430       c2_ok_emlrtRSI             0000000180043430     c2_real_time_test.obj
 0003:00010448       c2_pk_emlrtRSI             0000000180043448     c2_real_time_test.obj
 0003:00010460       c2_qk_emlrtRSI             0000000180043460     c2_real_time_test.obj
 0003:00010478       $SG29079                   0000000180043478     c2_real_time_test.obj
 0003:00010488       $SG29125                   0000000180043488     c2_real_time_test.obj
 0003:0001048c       $SG29126                   000000018004348c     c2_real_time_test.obj
 0003:00010490       $SG29127                   0000000180043490     c2_real_time_test.obj
 0003:00010494       $SG29128                   0000000180043494     c2_real_time_test.obj
 0003:00010498       $SG29129                   0000000180043498     c2_real_time_test.obj
 0003:0001049c       $SG29148                   000000018004349c     c2_real_time_test.obj
 0003:000104a4       $SG29355                   00000001800434a4     c2_real_time_test.obj
 0003:000104a8       $SG29145                   00000001800434a8     c2_real_time_test.obj
 0003:000104b4       $SG29146                   00000001800434b4     c2_real_time_test.obj
 0003:000104bc       $SG29356                   00000001800434bc     c2_real_time_test.obj
 0003:000104c0       $SG29147                   00000001800434c0     c2_real_time_test.obj
 0003:000104cc       $SG29359                   00000001800434cc     c2_real_time_test.obj
 0003:000104d4       $SG29361                   00000001800434d4     c2_real_time_test.obj
 0003:000104d8       $SG29149                   00000001800434d8     c2_real_time_test.obj
 0003:000104f4       $SG29362                   00000001800434f4     c2_real_time_test.obj
 0003:000104f8       ?c2_b_cv@?1??sf_gateway_c2_real_time_test@@9@9 00000001800434f8     c2_real_time_test.obj
 0003:00010528       ?c2_b_cv2@?1??sf_gateway_c2_real_time_test@@9@9 0000000180043528     c2_real_time_test.obj
 0003:00010558       ?c2_cv3@?1??sf_gateway_c2_real_time_test@@9@9 0000000180043558     c2_real_time_test.obj
 0003:00010588       ?c2_b_cv1@?1??sf_gateway_c2_real_time_test@@9@9 0000000180043588     c2_real_time_test.obj
 0003:000105b4       $SG29365                   00000001800435b4     c2_real_time_test.obj
 0003:000105bc       $SG29367                   00000001800435bc     c2_real_time_test.obj
 0003:000105c0       ?c2_cv4@?1??sf_gateway_c2_real_time_test@@9@9 00000001800435c0     c2_real_time_test.obj
 0003:000105ec       $SG29368                   00000001800435ec     c2_real_time_test.obj
 0003:000105f0       $SG29357                   00000001800435f0     c2_real_time_test.obj
 0003:000105f8       $SG29358                   00000001800435f8     c2_real_time_test.obj
 0003:00010604       $SG29373                   0000000180043604     c2_real_time_test.obj
 0003:00010608       $SG29363                   0000000180043608     c2_real_time_test.obj
 0003:00010610       $SG29364                   0000000180043610     c2_real_time_test.obj
 0003:0001061c       $SG29374                   000000018004361c     c2_real_time_test.obj
 0003:00010620       $SG29369                   0000000180043620     c2_real_time_test.obj
 0003:00010628       $SG29370                   0000000180043628     c2_real_time_test.obj
 0003:00010634       $SG29371                   0000000180043634     c2_real_time_test.obj
 0003:0001063c       $SG29379                   000000018004363c     c2_real_time_test.obj
 0003:00010640       $SG29375                   0000000180043640     c2_real_time_test.obj
 0003:00010648       $SG29376                   0000000180043648     c2_real_time_test.obj
 0003:00010654       $SG29377                   0000000180043654     c2_real_time_test.obj
 0003:0001065c       $SG29380                   000000018004365c     c2_real_time_test.obj
 0003:00010660       $SG29381                   0000000180043660     c2_real_time_test.obj
 0003:00010668       $SG29382                   0000000180043668     c2_real_time_test.obj
 0003:00010674       $SG29383                   0000000180043674     c2_real_time_test.obj
 0003:0001067c       $SG29710                   000000018004367c     c2_real_time_test.obj
 0003:00010680       $SG29428                   0000000180043680     c2_real_time_test.obj
 0003:00010690       $SG29442                   0000000180043690     c2_real_time_test.obj
 0003:000106a0       ?c2_kernel@?1??c2_imgaussfilt@@9@9 00000001800436a0     c2_real_time_test.obj
 0003:000106e8       ?c2_conn@?1??c2_imgaussfilt@@9@9 00000001800436e8     c2_real_time_test.obj
 0003:000106f8       ?c2_b_cv1@?1??c2_otsuthresh@@9@9 00000001800436f8     c2_real_time_test.obj
 0003:00010728       ?c2_b_cv@?1??c2_otsuthresh@@9@9 0000000180043728     c2_real_time_test.obj
 0003:00010748       ?c2_b_cv2@?1??c2_otsuthresh@@9@9 0000000180043748     c2_real_time_test.obj
 0003:00010750       ?c2_idxA@?1??c2_padImage@@9@9 0000000180043750     c2_real_time_test.obj
 0003:00010f60       $SG29711                   0000000180043f60     c2_real_time_test.obj
 0003:00010f64       $SG29712                   0000000180043f64     c2_real_time_test.obj
 0003:00010f68       $SG29713                   0000000180043f68     c2_real_time_test.obj
 0003:00010f70       $SG29714                   0000000180043f70     c2_real_time_test.obj
 0003:00010f7c       $SG29715                   0000000180043f7c     c2_real_time_test.obj
 0003:00010f84       ?c2_b_cv1@?1??c2_regionprops@@9@9 0000000180043f84     c2_real_time_test.obj
 0003:00010f88       ?c2_b_cv@?1??c2_regionprops@@9@9 0000000180043f88     c2_real_time_test.obj
 0003:00010fa8       $SG30120                   0000000180043fa8     c2_real_time_test.obj
 0003:00010fac       $SG30121                   0000000180043fac     c2_real_time_test.obj
 0003:00010fb4       $SG30167                   0000000180043fb4     c2_real_time_test.obj
 0003:00010fb8       $SG30168                   0000000180043fb8     c2_real_time_test.obj
 0003:00010fbc       $SG30169                   0000000180043fbc     c2_real_time_test.obj
 0003:00010fc0       $SG30170                   0000000180043fc0     c2_real_time_test.obj
 0003:00010fc8       $SG30171                   0000000180043fc8     c2_real_time_test.obj
 0003:00010fd4       $SG30172                   0000000180043fd4     c2_real_time_test.obj
 0003:00010fdc       $SG30729                   0000000180043fdc     c2_real_time_test.obj
 0003:00010fe0       ?c2_b_cv@?1??c2_check_forloop_overflow_error@@9@9 0000000180043fe0     c2_real_time_test.obj
 0003:00011004       ?c2_b_cv1@?1??c2_check_forloop_overflow_error@@9@9 0000000180044004     c2_real_time_test.obj
 0003:0001100c       $SG30730                   000000018004400c     c2_real_time_test.obj
 0003:00011010       $SG30731                   0000000180044010     c2_real_time_test.obj
 0003:00011014       $SG31029                   0000000180044014     c2_real_time_test.obj
 0003:00011018       $SG30732                   0000000180044018     c2_real_time_test.obj
 0003:00011020       $SG30733                   0000000180044020     c2_real_time_test.obj
 0003:0001102c       $SG30734                   000000018004402c     c2_real_time_test.obj
 0003:00011034       $SG31030                   0000000180044034     c2_real_time_test.obj
 0003:00011038       ?c2_b_cv@?1??c2_assertValidSizeArg@@9@9 0000000180044038     c2_real_time_test.obj
 0003:00011054       $SG31031                   0000000180044054     c2_real_time_test.obj
 0003:00011058       ?c2_b_cv1@?1??c2_assertValidSizeArg@@9@9 0000000180044058     c2_real_time_test.obj
 0003:00011070       $SG31032                   0000000180044070     c2_real_time_test.obj
 0003:00011074       $SG31039                   0000000180044074     c2_real_time_test.obj
 0003:00011078       $SG31033                   0000000180044078     c2_real_time_test.obj
 0003:00011080       $SG31034                   0000000180044080     c2_real_time_test.obj
 0003:0001108c       $SG31035                   000000018004408c     c2_real_time_test.obj
 0003:00011094       $SG31040                   0000000180044094     c2_real_time_test.obj
 0003:00011098       $SG31041                   0000000180044098     c2_real_time_test.obj
 0003:000110a0       $SG31042                   00000001800440a0     c2_real_time_test.obj
 0003:000110ac       $SG31043                   00000001800440ac     c2_real_time_test.obj
 0003:000110b4       $SG31101                   00000001800440b4     c2_real_time_test.obj
 0003:000110b8       $SG31102                   00000001800440b8     c2_real_time_test.obj
 0003:000110c0       $SG31430                   00000001800440c0     c2_real_time_test.obj
 0003:000110c4       $SG31431                   00000001800440c4     c2_real_time_test.obj
 0003:000110c8       $SG31432                   00000001800440c8     c2_real_time_test.obj
 0003:000110d0       $SG32182                   00000001800440d0     c2_real_time_test.obj
 0003:000110d4       $SG32183                   00000001800440d4     c2_real_time_test.obj
 0003:000110d8       $SG32184                   00000001800440d8     c2_real_time_test.obj
 0003:000110e0       $SG32185                   00000001800440e0     c2_real_time_test.obj
 0003:000110ec       $SG32186                   00000001800440ec     c2_real_time_test.obj
 0003:000110f4       $SG32196                   00000001800440f4     c2_real_time_test.obj
 0003:000110f8       $SG32197                   00000001800440f8     c2_real_time_test.obj
 0003:000110fc       $SG32250                   00000001800440fc     c2_real_time_test.obj
 0003:00011100       $SG32198                   0000000180044100     c2_real_time_test.obj
 0003:00011108       $SG32199                   0000000180044108     c2_real_time_test.obj
 0003:00011114       $SG32200                   0000000180044114     c2_real_time_test.obj
 0003:0001111c       $SG32251                   000000018004411c     c2_real_time_test.obj
 0003:00011120       $SG32252                   0000000180044120     c2_real_time_test.obj
 0003:00011128       $SG32253                   0000000180044128     c2_real_time_test.obj
 0003:00011134       $SG32254                   0000000180044134     c2_real_time_test.obj
 0003:0001113c       $SG32303                   000000018004413c     c2_real_time_test.obj
 0003:00011140       $SG32304                   0000000180044140     c2_real_time_test.obj
 0003:00011144       $SG32709                   0000000180044144     c2_real_time_test.obj
 0003:00011148       $SG32305                   0000000180044148     c2_real_time_test.obj
 0003:00011150       $SG32306                   0000000180044150     c2_real_time_test.obj
 0003:0001115c       $SG32307                   000000018004415c     c2_real_time_test.obj
 0003:00011164       $SG32710                   0000000180044164     c2_real_time_test.obj
 0003:00011168       ?c2_ndl4c@?1??c2_BoundaryFinder_findBoundaries@@9@9 0000000180044168     c2_real_time_test.obj
 0003:00011188       ?c2_ndl8c@?1??c2_BoundaryFinder_findBoundaries@@9@9 0000000180044188     c2_real_time_test.obj
 0003:000111a8       ?c2_nsdl4c@?1??c2_BoundaryFinder_findBoundaries@@9@9 00000001800441a8     c2_real_time_test.obj
 0003:000111c8       ?c2_nsdl8c@?1??c2_BoundaryFinder_findBoundaries@@9@9 00000001800441c8     c2_real_time_test.obj
 0003:000111e8       $SG32711                   00000001800441e8     c2_real_time_test.obj
 0003:000111f0       $SG32712                   00000001800441f0     c2_real_time_test.obj
 0003:000111fc       $SG32713                   00000001800441fc     c2_real_time_test.obj
 0003:00011204       $SG32803                   0000000180044204     c2_real_time_test.obj
 0003:00011208       $SG32804                   0000000180044208     c2_real_time_test.obj
 0003:0001120c       $SG32917                   000000018004420c     c2_real_time_test.obj
 0003:00011210       $SG32805                   0000000180044210     c2_real_time_test.obj
 0003:00011218       $SG32918                   0000000180044218     c2_real_time_test.obj
 0003:00011220       ?c2_c_dv@?1??c2_imclearborder@@9@9 0000000180044220     c2_real_time_test.obj
 0003:00011268       $SG32919                   0000000180044268     c2_real_time_test.obj
 0003:00011270       $SG32920                   0000000180044270     c2_real_time_test.obj
 0003:0001127c       $SG32921                   000000018004427c     c2_real_time_test.obj
 0003:00011284       $SG33410                   0000000180044284     c2_real_time_test.obj
 0003:00011288       ?c2_nhood@?1??c2_b_imerode@@9@9 0000000180044288     c2_real_time_test.obj
 0003:00011294       $SG33411                   0000000180044294     c2_real_time_test.obj
 0003:00011298       $SG33412                   0000000180044298     c2_real_time_test.obj
 0003:000112a0       $SG33413                   00000001800442a0     c2_real_time_test.obj
 0003:000112ac       $SG33414                   00000001800442ac     c2_real_time_test.obj
 0003:000112b4       $SG33423                   00000001800442b4     c2_real_time_test.obj
 0003:000112b8       $SG33424                   00000001800442b8     c2_real_time_test.obj
 0003:000112bc       $SG33836                   00000001800442bc     c2_real_time_test.obj
 0003:000112c4       $SG34179                   00000001800442c4     c2_real_time_test.obj
 0003:000112c8       $SG33425                   00000001800442c8     c2_real_time_test.obj
 0003:000112d0       $SG33426                   00000001800442d0     c2_real_time_test.obj
 0003:000112dc       $SG33427                   00000001800442dc     c2_real_time_test.obj
 0003:000112e4       $SG33839                   00000001800442e4     c2_real_time_test.obj
 0003:000112ec       $SG33841                   00000001800442ec     c2_real_time_test.obj
 0003:000112f4       $SG33857                   00000001800442f4     c2_real_time_test.obj
 0003:000112fc       $SG33872                   00000001800442fc     c2_real_time_test.obj
 0003:00011304       $SG34180                   0000000180044304     c2_real_time_test.obj
 0003:00011308       ?c2_b_cv1@?1??c2_b_ComputePixelList@@9@9 0000000180044308     c2_real_time_test.obj
 0003:00011330       ?c2_b_cv@?1??c2_b_ComputePixelList@@9@9 0000000180044330     c2_real_time_test.obj
 0003:00011354       $SG34187                   0000000180044354     c2_real_time_test.obj
 0003:00011358       $SG34181                   0000000180044358     c2_real_time_test.obj
 0003:00011360       $SG34182                   0000000180044360     c2_real_time_test.obj
 0003:0001136c       $SG34183                   000000018004436c     c2_real_time_test.obj
 0003:00011374       $SG34188                   0000000180044374     c2_real_time_test.obj
 0003:00011378       $SG34189                   0000000180044378     c2_real_time_test.obj
 0003:00011380       $SG34190                   0000000180044380     c2_real_time_test.obj
 0003:0001138c       $SG34191                   000000018004438c     c2_real_time_test.obj
 0003:00011394       $SG34195                   0000000180044394     c2_real_time_test.obj
 0003:00011398       $SG34196                   0000000180044398     c2_real_time_test.obj
 0003:000113a0       $SG34197                   00000001800443a0     c2_real_time_test.obj
 0003:000113a8       $SG34198                   00000001800443a8     c2_real_time_test.obj
 0003:000113b4       $SG34199                   00000001800443b4     c2_real_time_test.obj
 0003:000113c0       $SG35359                   00000001800443c0     c2_real_time_test.obj
 0003:000113f8       $SG35360                   00000001800443f8     c2_real_time_test.obj
 0003:00011430       $SG35361                   0000000180044430     c2_real_time_test.obj
 0003:00011468       $SG35362                   0000000180044468     c2_real_time_test.obj
 0003:000114a0       $SG35363                   00000001800444a0     c2_real_time_test.obj
 0003:000114d8       $SG35364                   00000001800444d8     c2_real_time_test.obj
 0003:00011510       $SG35365                   0000000180044510     c2_real_time_test.obj
 0003:00011550       $SG35377                   0000000180044550     c2_real_time_test.obj
 0003:00011560       $SG35379                   0000000180044560     c2_real_time_test.obj
 0003:00011570       $SG35381                   0000000180044570     c2_real_time_test.obj
 0003:00011588       $SG35383                   0000000180044588     c2_real_time_test.obj
 0003:000115a0       $SG35385                   00000001800445a0     c2_real_time_test.obj
 0003:000115b4       $SG35386                   00000001800445b4     c2_real_time_test.obj
 0003:000115c0       $SG35387                   00000001800445c0     c2_real_time_test.obj
 0003:000115d8       $SG35390                   00000001800445d8     c2_real_time_test.obj
 0003:000115f0       $SG35403                   00000001800445f0     c2_real_time_test.obj
 0003:00011600       $SG35405                   0000000180044600     c2_real_time_test.obj
 0003:00011608       $SG35535                   0000000180044608     c2_real_time_test.obj
 0003:00011640       $SG35406                   0000000180044640     c2_real_time_test.obj
 0003:00011760       $SG35501                   0000000180044760     c2_real_time_test.obj
 0003:000117b0       $SG35503                   00000001800447b0     c2_real_time_test.obj
 0003:00011800       $SG35505                   0000000180044800     c2_real_time_test.obj
 0003:00011850       $SG35507                   0000000180044850     c2_real_time_test.obj
 0003:000118a0       $SG35509                   00000001800448a0     c2_real_time_test.obj
 0003:000118f0       $SG35511                   00000001800448f0     c2_real_time_test.obj
 0003:00011940       $SG35513                   0000000180044940     c2_real_time_test.obj
 0003:00011990       $SG35515                   0000000180044990     c2_real_time_test.obj
 0003:000119e0       $SG35517                   00000001800449e0     c2_real_time_test.obj
 0003:00011a30       $SG35519                   0000000180044a30     c2_real_time_test.obj
 0003:00011a80       $SG35521                   0000000180044a80     c2_real_time_test.obj
 0003:00011ad0       $SG35523                   0000000180044ad0     c2_real_time_test.obj
 0003:00011b20       $SG35525                   0000000180044b20     c2_real_time_test.obj
 0003:00011b70       $SG35527                   0000000180044b70     c2_real_time_test.obj
 0003:00011bc0       $SG35529                   0000000180044bc0     c2_real_time_test.obj
 0003:00011c10       $SG35531                   0000000180044c10     c2_real_time_test.obj
 0003:00011c60       $SG35533                   0000000180044c60     c2_real_time_test.obj
 0003:00011cb0       $SG35548                   0000000180044cb0     c2_real_time_test.obj
 0003:00011cc0       $SG35549                   0000000180044cc0     c2_real_time_test.obj
 0003:00011cd8       $SG35574                   0000000180044cd8     c2_real_time_test.obj
 0003:00011d10       $SG35589                   0000000180044d10     c2_real_time_test.obj
 0003:00011d88       $SG25719                   0000000180044d88     real_time_test_sfun_registry.obj
 0003:00011da8       $SG25721                   0000000180044da8     real_time_test_sfun_registry.obj
 0003:00011db8       $SG25757                   0000000180044db8     real_time_test_sfun_registry.obj
 0003:00011dd0       $SG25759                   0000000180044dd0     real_time_test_sfun_registry.obj
 0003:00011de0       $SG25795                   0000000180044de0     real_time_test_sfun_registry.obj
 0003:00011df8       $SG25797                   0000000180044df8     real_time_test_sfun_registry.obj
 0003:00011e08       $SG25833                   0000000180044e08     real_time_test_sfun_registry.obj
 0003:00011e28       $SG25835                   0000000180044e28     real_time_test_sfun_registry.obj
 0003:00011e38       $SG25871                   0000000180044e38     real_time_test_sfun_registry.obj
 0003:00011e58       $SG25873                   0000000180044e58     real_time_test_sfun_registry.obj
 0003:00011e68       $SG25893                   0000000180044e68     real_time_test_sfun_registry.obj
 0003:00011e78       $SG25911                   0000000180044e78     real_time_test_sfun_registry.obj
 0003:00011e90       $SG25942                   0000000180044e90     real_time_test_sfun_registry.obj
 0003:00011ea0       $SG26042                   0000000180044ea0     real_time_test_sfun_registry.obj
 0003:00011ea8       $SG26043                   0000000180044ea8     real_time_test_sfun_registry.obj
 0003:00011ebc       $SG26048                   0000000180044ebc     real_time_test_sfun_registry.obj
 0003:00011ec4       $SG27692                   0000000180044ec4     real_time_test_sfun_registry.obj
 0003:00011ec8       $SG26049                   0000000180044ec8     real_time_test_sfun_registry.obj
 0003:00011ee4       $SG26743                   0000000180044ee4     real_time_test_sfun_registry.obj
 0003:00011eec       $SG27770                   0000000180044eec     real_time_test_sfun_registry.obj
 0003:00011ef0       $SG26190                   0000000180044ef0     real_time_test_sfun_registry.obj
 0003:00011f18       _sfcnName                  0000000180044f18     real_time_test_sfun_registry.obj
 0003:00011f38       $SG26536                   0000000180044f38     real_time_test_sfun_registry.obj
 0003:00011f40       $SG26207                   0000000180044f40     real_time_test_sfun_registry.obj
 0003:00011fb8       $SG26537                   0000000180044fb8     real_time_test_sfun_registry.obj
 0003:00011fc0       $SG26551                   0000000180044fc0     real_time_test_sfun_registry.obj
 0003:00011fd0       $SG26741                   0000000180044fd0     real_time_test_sfun_registry.obj
 0003:00012010       $SG26742                   0000000180045010     real_time_test_sfun_registry.obj
 0003:00012018       $SG26748                   0000000180045018     real_time_test_sfun_registry.obj
 0003:00012020       $SG26747                   0000000180045020     real_time_test_sfun_registry.obj
 0003:00012068       $SG26749                   0000000180045068     real_time_test_sfun_registry.obj
 0003:00012070       $SG26750                   0000000180045070     real_time_test_sfun_registry.obj
 0003:000120c8       $SG26751                   00000001800450c8     real_time_test_sfun_registry.obj
 0003:000120d0       $SG26752                   00000001800450d0     real_time_test_sfun_registry.obj
 0003:000120d8       $SG26774                   00000001800450d8     real_time_test_sfun_registry.obj
 0003:00012118       $SG26775                   0000000180045118     real_time_test_sfun_registry.obj
 0003:00012120       $SG26776                   0000000180045120     real_time_test_sfun_registry.obj
 0003:00012128       $SG26781                   0000000180045128     real_time_test_sfun_registry.obj
 0003:00012130       $SG26780                   0000000180045130     real_time_test_sfun_registry.obj
 0003:00012178       $SG26782                   0000000180045178     real_time_test_sfun_registry.obj
 0003:00012180       $SG26783                   0000000180045180     real_time_test_sfun_registry.obj
 0003:000121d8       $SG26784                   00000001800451d8     real_time_test_sfun_registry.obj
 0003:000121e0       $SG26785                   00000001800451e0     real_time_test_sfun_registry.obj
 0003:000121e8       $SG26801                   00000001800451e8     real_time_test_sfun_registry.obj
 0003:000121f0       $SG26800                   00000001800451f0     real_time_test_sfun_registry.obj
 0003:00012240       $SG26802                   0000000180045240     real_time_test_sfun_registry.obj
 0003:00012248       $SG26815                   0000000180045248     real_time_test_sfun_registry.obj
 0003:00012250       $SG26814                   0000000180045250     real_time_test_sfun_registry.obj
 0003:000122b0       $SG26816                   00000001800452b0     real_time_test_sfun_registry.obj
 0003:000122b8       $SG26829                   00000001800452b8     real_time_test_sfun_registry.obj
 0003:000122c0       $SG26828                   00000001800452c0     real_time_test_sfun_registry.obj
 0003:00012320       $SG26830                   0000000180045320     real_time_test_sfun_registry.obj
 0003:00012328       $SG27676                   0000000180045328     real_time_test_sfun_registry.obj
 0003:00012340       $SG27054                   0000000180045340     real_time_test_sfun_registry.obj
 0003:000123b8       $SG27744                   00000001800453b8     real_time_test_sfun_registry.obj
 0003:000123c0       $SG27057                   00000001800453c0     real_time_test_sfun_registry.obj
 0003:00012434       $SG27745                   0000000180045434     real_time_test_sfun_registry.obj
 0003:00012440       $SG27062                   0000000180045440     real_time_test_sfun_registry.obj
 0003:000124b8       $SG27746                   00000001800454b8     real_time_test_sfun_registry.obj
 0003:000124c0       $SG27070                   00000001800454c0     real_time_test_sfun_registry.obj
 0003:00012530       $SG27345                   0000000180045530     real_time_test_sfun_registry.obj
 0003:000125a8       $SG27752                   00000001800455a8     real_time_test_sfun_registry.obj
 0003:000125b0       $SG27350                   00000001800455b0     real_time_test_sfun_registry.obj
 0003:00012628       $SG27755                   0000000180045628     real_time_test_sfun_registry.obj
 0003:00012630       $SG27689                   0000000180045630     real_time_test_sfun_registry.obj
 0003:000126a8       $SG27758                   00000001800456a8     real_time_test_sfun_registry.obj
 0003:000126b0       $SG27747                   00000001800456b0     real_time_test_sfun_registry.obj
 0003:00012728       $SG27764                   0000000180045728     real_time_test_sfun_registry.obj
 0003:00012730       $SG27749                   0000000180045730     real_time_test_sfun_registry.obj
 0003:000127b0       $SG27759                   00000001800457b0     real_time_test_sfun_registry.obj
 0003:00012830       $SG27760                   0000000180045830     real_time_test_sfun_registry.obj
 0003:00012840       $SG27762                   0000000180045840     real_time_test_sfun_registry.obj
 0003:0001284c       $SG27766                   000000018004584c     real_time_test_sfun_registry.obj
 0003:00012858       $SG27768                   0000000180045858     real_time_test_sfun_registry.obj
 0003:00012868       $SG27878                   0000000180045868     real_time_test_sfun_registry.obj
 0003:00012898       $SG27879                   0000000180045898     real_time_test_sfun_registry.obj
 0003:000128a0       $SG27773                   00000001800458a0     real_time_test_sfun_registry.obj
 0003:00012988       $SG27880                   0000000180045988     real_time_test_sfun_registry.obj
 0003:00012990       $SG27882                   0000000180045990     real_time_test_sfun_registry.obj
 0003:000129c8       $SG27883                   00000001800459c8     real_time_test_sfun_registry.obj
 0003:000129d0       $SG27884                   00000001800459d0     real_time_test_sfun_registry.obj
 0003:000129d8       $SG27887                   00000001800459d8     real_time_test_sfun_registry.obj
 0003:00012a10       $SG27888                   0000000180045a10     real_time_test_sfun_registry.obj
 0003:00012a18       $SG27889                   0000000180045a18     real_time_test_sfun_registry.obj
 0003:00012a20       $SG27891                   0000000180045a20     real_time_test_sfun_registry.obj
 0003:00012a58       $SG27892                   0000000180045a58     real_time_test_sfun_registry.obj
 0003:00012a60       $SG27893                   0000000180045a60     real_time_test_sfun_registry.obj
 0003:00012a68       $SG27895                   0000000180045a68     real_time_test_sfun_registry.obj
 0003:00012aa0       $SG27896                   0000000180045aa0     real_time_test_sfun_registry.obj
 0003:00012aa8       $SG27897                   0000000180045aa8     real_time_test_sfun_registry.obj
 0003:00012ab0       $SG27900                   0000000180045ab0     real_time_test_sfun_registry.obj
 0003:00012ab8       $SG27902                   0000000180045ab8     real_time_test_sfun_registry.obj
 0003:00012ad0       $SG27903                   0000000180045ad0     real_time_test_sfun_registry.obj
 0003:00012b08       $SG27904                   0000000180045b08     real_time_test_sfun_registry.obj
 0003:00012b10       $SG27905                   0000000180045b10     real_time_test_sfun_registry.obj
 0003:00012b18       $SG28074                   0000000180045b18     real_time_test_sfun_registry.obj
 0003:00012b38       $SG28079                   0000000180045b38     real_time_test_sfun_registry.obj
 0003:00012b50       $SG28075                   0000000180045b50     real_time_test_sfun_registry.obj
 0003:00012be0       $SG28080                   0000000180045be0     real_time_test_sfun_registry.obj
 0003:00012c70       $SG28084                   0000000180045c70     real_time_test_sfun_registry.obj
 0003:00012c88       $SG28099                   0000000180045c88     real_time_test_sfun_registry.obj
 0003:00012ca8       $SG28104                   0000000180045ca8     real_time_test_sfun_registry.obj
 0003:00012cd0       $SG28085                   0000000180045cd0     real_time_test_sfun_registry.obj
 0003:00012d60       $SG28089                   0000000180045d60     real_time_test_sfun_registry.obj
 0003:00012d80       $SG28090                   0000000180045d80     real_time_test_sfun_registry.obj
 0003:00012e10       $SG28094                   0000000180045e10     real_time_test_sfun_registry.obj
 0003:00012e30       $SG28095                   0000000180045e30     real_time_test_sfun_registry.obj
 0003:00012ec0       $SG28100                   0000000180045ec0     real_time_test_sfun_registry.obj
 0003:00012f50       $SG28105                   0000000180045f50     real_time_test_sfun_registry.obj
 0003:00012fe0       $SG28109                   0000000180045fe0     real_time_test_sfun_registry.obj
 0003:00013008       $SG28124                   0000000180046008     real_time_test_sfun_registry.obj
 0003:00013020       $SG28110                   0000000180046020     real_time_test_sfun_registry.obj
 0003:000130b0       $SG28114                   00000001800460b0     real_time_test_sfun_registry.obj
 0003:000130d0       $SG28115                   00000001800460d0     real_time_test_sfun_registry.obj
 0003:00013160       $SG28119                   0000000180046160     real_time_test_sfun_registry.obj
 0003:00013180       $SG28120                   0000000180046180     real_time_test_sfun_registry.obj
 0003:00013210       $SG28125                   0000000180046210     real_time_test_sfun_registry.obj
 0003:000132a0       $SG28129                   00000001800462a0     real_time_test_sfun_registry.obj
 0003:000132c0       $SG28130                   00000001800462c0     real_time_test_sfun_registry.obj
 0003:00013350       $SG28134                   0000000180046350     real_time_test_sfun_registry.obj
 0003:00013370       $SG28135                   0000000180046370     real_time_test_sfun_registry.obj
 0003:00013400       $SG28139                   0000000180046400     real_time_test_sfun_registry.obj
 0003:00013420       $SG28140                   0000000180046420     real_time_test_sfun_registry.obj
 0003:000134b0       $SG28144                   00000001800464b0     real_time_test_sfun_registry.obj
 0003:000134d0       $SG28145                   00000001800464d0     real_time_test_sfun_registry.obj
 0003:00013560       $SG28149                   0000000180046560     real_time_test_sfun_registry.obj
 0003:00013580       $SG28150                   0000000180046580     real_time_test_sfun_registry.obj
 0003:00013610       $SG28154                   0000000180046610     real_time_test_sfun_registry.obj
 0003:00013630       $SG28155                   0000000180046630     real_time_test_sfun_registry.obj
 0003:000136c0       $SG28160                   00000001800466c0     real_time_test_sfun_registry.obj
 0003:000136d4       $SG28166                   00000001800466d4     real_time_test_sfun_registry.obj
 0003:000136e0       $SG28161                   00000001800466e0     real_time_test_sfun_registry.obj
 0003:00013770       $SG28167                   0000000180046770     real_time_test_sfun_registry.obj
 0003:00013800       $SG28171                   0000000180046800     real_time_test_sfun_registry.obj
 0003:00013818       $SG28201                   0000000180046818     real_time_test_sfun_registry.obj
 0003:00013830       $SG28172                   0000000180046830     real_time_test_sfun_registry.obj
 0003:000138c0       $SG28176                   00000001800468c0     real_time_test_sfun_registry.obj
 0003:000138d0       $SG28177                   00000001800468d0     real_time_test_sfun_registry.obj
 0003:00013960       $SG28181                   0000000180046960     real_time_test_sfun_registry.obj
 0003:00013980       $SG28182                   0000000180046980     real_time_test_sfun_registry.obj
 0003:00013a10       $SG28186                   0000000180046a10     real_time_test_sfun_registry.obj
 0003:00013a30       $SG28187                   0000000180046a30     real_time_test_sfun_registry.obj
 0003:00013ac0       $SG28191                   0000000180046ac0     real_time_test_sfun_registry.obj
 0003:00013ad0       $SG28192                   0000000180046ad0     real_time_test_sfun_registry.obj
 0003:00013b60       $SG28196                   0000000180046b60     real_time_test_sfun_registry.obj
 0003:00013b70       $SG28197                   0000000180046b70     real_time_test_sfun_registry.obj
 0003:00013c00       $SG28202                   0000000180046c00     real_time_test_sfun_registry.obj
 0003:00013c90       $SG28206                   0000000180046c90     real_time_test_sfun_registry.obj
 0003:00013ca8       $SG28211                   0000000180046ca8     real_time_test_sfun_registry.obj
 0003:00013cb8       $SG28285                   0000000180046cb8     real_time_test_sfun_registry.obj
 0003:00013cd0       $SG28207                   0000000180046cd0     real_time_test_sfun_registry.obj
 0003:00013d60       $SG28212                   0000000180046d60     real_time_test_sfun_registry.obj
 0003:00013df0       $SG28220                   0000000180046df0     real_time_test_sfun_registry.obj
 0003:00013e00       $SG28221                   0000000180046e00     real_time_test_sfun_registry.obj
 0003:00013e90       $SG28227                   0000000180046e90     real_time_test_sfun_registry.obj
 0003:00013ea0       $SG28228                   0000000180046ea0     real_time_test_sfun_registry.obj
 0003:00013f30       $SG28232                   0000000180046f30     real_time_test_sfun_registry.obj
 0003:00013f40       $SG28233                   0000000180046f40     real_time_test_sfun_registry.obj
 0003:00013fd0       $SG28238                   0000000180046fd0     real_time_test_sfun_registry.obj
 0003:00013fe0       $SG28239                   0000000180046fe0     real_time_test_sfun_registry.obj
 0003:00014070       $SG28243                   0000000180047070     real_time_test_sfun_registry.obj
 0003:000140f0       $SG28273                   00000001800470f0     real_time_test_sfun_registry.obj
 0003:00014208       $SG28295                   0000000180047208     real_time_test_sfun_registry.obj
 0003:00014218       $SG28307                   0000000180047218     real_time_test_sfun_registry.obj
 0003:00014228       $SG28317                   0000000180047228     real_time_test_sfun_registry.obj
 0003:00014238       $SG28329                   0000000180047238     real_time_test_sfun_registry.obj
 0003:00014248       $SG28339                   0000000180047248     real_time_test_sfun_registry.obj
 0003:00014258       $SG28349                   0000000180047258     real_time_test_sfun_registry.obj
 0003:000142d0       sRtwOptimizationInfoStruct 00000001800472d0     real_time_test_sfun.obj
 0003:000142d8       sOptimizationInfoFlags     00000001800472d8     real_time_test_sfun.obj
 0003:000142e0       $SG27452                   00000001800472e0     c2_real_time_test.obj
 0003:000142e1       $SG27456                   00000001800472e1     c2_real_time_test.obj
 0003:000142e2       $SG27460                   00000001800472e2     c2_real_time_test.obj
 0003:000142e3       $SG27464                   00000001800472e3     c2_real_time_test.obj
 0003:000142e4       $SG27471                   00000001800472e4     c2_real_time_test.obj
 0003:000142e5       $SG27475                   00000001800472e5     c2_real_time_test.obj
 0003:000142e6       $SG27479                   00000001800472e6     c2_real_time_test.obj
 0003:000142e7       $SG27483                   00000001800472e7     c2_real_time_test.obj
 0003:000142e8       $SG27487                   00000001800472e8     c2_real_time_test.obj
 0003:000142e9       $SG27491                   00000001800472e9     c2_real_time_test.obj
 0003:000142ea       $SG27495                   00000001800472ea     c2_real_time_test.obj
 0003:000142eb       $SG27499                   00000001800472eb     c2_real_time_test.obj
 0003:000142ec       $SG27503                   00000001800472ec     c2_real_time_test.obj
 0003:000142ed       $SG27507                   00000001800472ed     c2_real_time_test.obj
 0003:000142ee       $SG27511                   00000001800472ee     c2_real_time_test.obj
 0003:000142ef       $SG27515                   00000001800472ef     c2_real_time_test.obj
 0003:000142f0       $SG27519                   00000001800472f0     c2_real_time_test.obj
 0003:000142f1       $SG27523                   00000001800472f1     c2_real_time_test.obj
 0003:000142f2       $SG27527                   00000001800472f2     c2_real_time_test.obj
 0003:000142f3       $SG27531                   00000001800472f3     c2_real_time_test.obj
 0003:000142f4       $SG27535                   00000001800472f4     c2_real_time_test.obj
 0003:000142f5       $SG27542                   00000001800472f5     c2_real_time_test.obj
 0003:000142f6       $SG27546                   00000001800472f6     c2_real_time_test.obj
 0003:000142f7       $SG27550                   00000001800472f7     c2_real_time_test.obj
 0003:000142f8       $SG27554                   00000001800472f8     c2_real_time_test.obj
 0003:000142f9       $SG27561                   00000001800472f9     c2_real_time_test.obj
 0003:000142fa       $SG27565                   00000001800472fa     c2_real_time_test.obj
 0003:000142fb       $SG27569                   00000001800472fb     c2_real_time_test.obj
 0003:000142fc       $SG27573                   00000001800472fc     c2_real_time_test.obj
 0003:000142fd       $SG27577                   00000001800472fd     c2_real_time_test.obj
 0003:000142fe       $SG27581                   00000001800472fe     c2_real_time_test.obj
 0003:000142ff       $SG27585                   00000001800472ff     c2_real_time_test.obj
 0003:00014300       $SG27589                   0000000180047300     c2_real_time_test.obj
 0003:00014301       $SG27593                   0000000180047301     c2_real_time_test.obj
 0003:00014302       $SG27597                   0000000180047302     c2_real_time_test.obj
 0003:00014303       $SG27601                   0000000180047303     c2_real_time_test.obj
 0003:00014304       $SG27605                   0000000180047304     c2_real_time_test.obj
 0003:00014305       $SG27609                   0000000180047305     c2_real_time_test.obj
 0003:00014306       $SG27613                   0000000180047306     c2_real_time_test.obj
 0003:00014307       $SG27617                   0000000180047307     c2_real_time_test.obj
 0003:00014308       $SG27621                   0000000180047308     c2_real_time_test.obj
 0003:00014309       $SG27625                   0000000180047309     c2_real_time_test.obj
 0003:0001430a       $SG27629                   000000018004730a     c2_real_time_test.obj
 0003:0001430b       $SG27633                   000000018004730b     c2_real_time_test.obj
 0003:0001430c       $SG27637                   000000018004730c     c2_real_time_test.obj
 0003:0001430d       $SG27641                   000000018004730d     c2_real_time_test.obj
 0003:0001430e       $SG27645                   000000018004730e     c2_real_time_test.obj
 0003:0001430f       $SG27649                   000000018004730f     c2_real_time_test.obj
 0003:00014310       $SG27653                   0000000180047310     c2_real_time_test.obj
 0003:00014311       $SG27657                   0000000180047311     c2_real_time_test.obj
 0003:00014312       $SG27661                   0000000180047312     c2_real_time_test.obj
 0003:00014313       $SG27665                   0000000180047313     c2_real_time_test.obj
 0003:00014314       $SG27675                   0000000180047314     c2_real_time_test.obj
 0003:00014315       $SG27679                   0000000180047315     c2_real_time_test.obj
 0003:00014316       $SG27683                   0000000180047316     c2_real_time_test.obj
 0003:00014317       $SG27687                   0000000180047317     c2_real_time_test.obj
 0003:00014318       $SG27691                   0000000180047318     c2_real_time_test.obj
 0003:00014319       $SG27695                   0000000180047319     c2_real_time_test.obj
 0003:0001431a       $SG27699                   000000018004731a     c2_real_time_test.obj
 0003:0001431b       $SG27703                   000000018004731b     c2_real_time_test.obj
 0003:0001431c       $SG27707                   000000018004731c     c2_real_time_test.obj
 0003:0001431d       $SG27711                   000000018004731d     c2_real_time_test.obj
 0003:0001431e       $SG27715                   000000018004731e     c2_real_time_test.obj
 0003:0001431f       $SG27719                   000000018004731f     c2_real_time_test.obj
 0003:00014320       $SG27723                   0000000180047320     c2_real_time_test.obj
 0003:00014321       $SG27727                   0000000180047321     c2_real_time_test.obj
 0003:00014322       $SG27731                   0000000180047322     c2_real_time_test.obj
 0003:00014323       $SG27735                   0000000180047323     c2_real_time_test.obj
 0003:00014324       $SG27739                   0000000180047324     c2_real_time_test.obj
 0003:00014325       $SG27743                   0000000180047325     c2_real_time_test.obj
 0003:00014326       $SG27747                   0000000180047326     c2_real_time_test.obj
 0003:00014327       $SG27751                   0000000180047327     c2_real_time_test.obj
 0003:00014328       $SG27755                   0000000180047328     c2_real_time_test.obj
 0003:00014329       $SG27759                   0000000180047329     c2_real_time_test.obj
 0003:0001432a       $SG27763                   000000018004732a     c2_real_time_test.obj
 0003:0001432b       $SG27767                   000000018004732b     c2_real_time_test.obj
 0003:0001432c       $SG27771                   000000018004732c     c2_real_time_test.obj
 0003:0001432d       $SG27775                   000000018004732d     c2_real_time_test.obj
 0003:0001432e       $SG27779                   000000018004732e     c2_real_time_test.obj
 0003:0001432f       $SG27783                   000000018004732f     c2_real_time_test.obj
 0003:00014330       $SG27787                   0000000180047330     c2_real_time_test.obj
 0003:00014331       $SG27791                   0000000180047331     c2_real_time_test.obj
 0003:00014332       $SG27795                   0000000180047332     c2_real_time_test.obj
 0003:00014333       $SG27799                   0000000180047333     c2_real_time_test.obj
 0003:00014334       $SG27803                   0000000180047334     c2_real_time_test.obj
 0003:00014335       $SG27807                   0000000180047335     c2_real_time_test.obj
 0003:00014336       $SG27811                   0000000180047336     c2_real_time_test.obj
 0003:00014337       $SG27815                   0000000180047337     c2_real_time_test.obj
 0003:00014338       $SG27819                   0000000180047338     c2_real_time_test.obj
 0003:00014339       $SG27823                   0000000180047339     c2_real_time_test.obj
 0003:0001433a       $SG27827                   000000018004733a     c2_real_time_test.obj
 0003:0001433b       $SG27831                   000000018004733b     c2_real_time_test.obj
 0003:0001433c       $SG27835                   000000018004733c     c2_real_time_test.obj
 0003:0001433d       $SG27839                   000000018004733d     c2_real_time_test.obj
 0003:0001433e       $SG27843                   000000018004733e     c2_real_time_test.obj
 0003:0001433f       $SG27847                   000000018004733f     c2_real_time_test.obj
 0003:00014340       $SG27851                   0000000180047340     c2_real_time_test.obj
 0003:00014341       $SG27855                   0000000180047341     c2_real_time_test.obj
 0003:00014342       $SG27859                   0000000180047342     c2_real_time_test.obj
 0003:00014343       $SG27863                   0000000180047343     c2_real_time_test.obj
 0003:00014344       $SG27867                   0000000180047344     c2_real_time_test.obj
 0003:00014345       $SG27871                   0000000180047345     c2_real_time_test.obj
 0003:00014346       $SG27875                   0000000180047346     c2_real_time_test.obj
 0003:00014347       $SG27879                   0000000180047347     c2_real_time_test.obj
 0003:00014348       $SG27883                   0000000180047348     c2_real_time_test.obj
 0003:00014349       $SG27887                   0000000180047349     c2_real_time_test.obj
 0003:0001434a       $SG27891                   000000018004734a     c2_real_time_test.obj
 0003:0001434b       $SG27895                   000000018004734b     c2_real_time_test.obj
 0003:0001434c       $SG27902                   000000018004734c     c2_real_time_test.obj
 0003:0001434d       $SG27906                   000000018004734d     c2_real_time_test.obj
 0003:0001434e       $SG27916                   000000018004734e     c2_real_time_test.obj
 0003:0001434f       $SG27920                   000000018004734f     c2_real_time_test.obj
 0003:00014350       $SG27924                   0000000180047350     c2_real_time_test.obj
 0003:00014351       $SG27931                   0000000180047351     c2_real_time_test.obj
 0003:00014352       $SG27935                   0000000180047352     c2_real_time_test.obj
 0003:00014353       $SG27939                   0000000180047353     c2_real_time_test.obj
 0003:00014354       $SG27943                   0000000180047354     c2_real_time_test.obj
 0003:00014355       $SG27947                   0000000180047355     c2_real_time_test.obj
 0003:00014356       $SG27951                   0000000180047356     c2_real_time_test.obj
 0003:00014357       $SG27955                   0000000180047357     c2_real_time_test.obj
 0003:00014358       $SG27959                   0000000180047358     c2_real_time_test.obj
 0003:00014359       $SG27963                   0000000180047359     c2_real_time_test.obj
 0003:0001435a       $SG27967                   000000018004735a     c2_real_time_test.obj
 0003:0001435b       $SG27971                   000000018004735b     c2_real_time_test.obj
 0003:0001435c       $SG27975                   000000018004735c     c2_real_time_test.obj
 0003:0001435d       $SG27979                   000000018004735d     c2_real_time_test.obj
 0003:0001435e       $SG27983                   000000018004735e     c2_real_time_test.obj
 0003:0001435f       $SG27987                   000000018004735f     c2_real_time_test.obj
 0003:00014360       $SG27991                   0000000180047360     c2_real_time_test.obj
 0003:00014361       $SG27995                   0000000180047361     c2_real_time_test.obj
 0003:00014362       $SG27999                   0000000180047362     c2_real_time_test.obj
 0003:00014363       $SG28003                   0000000180047363     c2_real_time_test.obj
 0003:00014364       $SG28007                   0000000180047364     c2_real_time_test.obj
 0003:00014365       $SG28011                   0000000180047365     c2_real_time_test.obj
 0003:00014366       $SG28015                   0000000180047366     c2_real_time_test.obj
 0003:00014367       $SG28019                   0000000180047367     c2_real_time_test.obj
 0003:00014368       $SG28023                   0000000180047368     c2_real_time_test.obj
 0003:00014369       $SG28027                   0000000180047369     c2_real_time_test.obj
 0003:0001436a       $SG28031                   000000018004736a     c2_real_time_test.obj
 0003:0001436b       $SG28035                   000000018004736b     c2_real_time_test.obj
 0003:0001436c       $SG28039                   000000018004736c     c2_real_time_test.obj
 0003:0001436d       $SG28043                   000000018004736d     c2_real_time_test.obj
 0003:0001436e       $SG28047                   000000018004736e     c2_real_time_test.obj
 0003:0001436f       $SG28051                   000000018004736f     c2_real_time_test.obj
 0003:00014370       $SG28055                   0000000180047370     c2_real_time_test.obj
 0003:00014371       $SG28059                   0000000180047371     c2_real_time_test.obj
 0003:00014372       $SG28063                   0000000180047372     c2_real_time_test.obj
 0003:00014373       $SG28067                   0000000180047373     c2_real_time_test.obj
 0003:00014374       $SG28071                   0000000180047374     c2_real_time_test.obj
 0003:00014375       $SG28075                   0000000180047375     c2_real_time_test.obj
 0003:00014376       $SG28079                   0000000180047376     c2_real_time_test.obj
 0003:00014377       $SG28083                   0000000180047377     c2_real_time_test.obj
 0003:00014378       $SG28093                   0000000180047378     c2_real_time_test.obj
 0003:00014379       $SG28097                   0000000180047379     c2_real_time_test.obj
 0003:0001437a       $SG28101                   000000018004737a     c2_real_time_test.obj
 0003:0001437b       $SG28108                   000000018004737b     c2_real_time_test.obj
 0003:0001437c       $SG28112                   000000018004737c     c2_real_time_test.obj
 0003:0001437d       $SG28116                   000000018004737d     c2_real_time_test.obj
 0003:0001437e       $SG28120                   000000018004737e     c2_real_time_test.obj
 0003:0001437f       $SG28124                   000000018004737f     c2_real_time_test.obj
 0003:00014380       $SG28128                   0000000180047380     c2_real_time_test.obj
 0003:00014381       $SG28132                   0000000180047381     c2_real_time_test.obj
 0003:00014382       $SG29427                   0000000180047382     c2_real_time_test.obj
 0003:00014383       $SG35388                   0000000180047383     c2_real_time_test.obj
 0003:00014384       $SG35389                   0000000180047384     c2_real_time_test.obj
 0003:00014385       $SG35537                   0000000180047385     c2_real_time_test.obj
 0003:00014388       _sfTime_                   0000000180047388     c2_real_time_test.obj
 0003:00014390       ?newstr@?1??sf_c2_real_time_test_get_post_codegen_info@@9@9 0000000180047390     c2_real_time_test.obj
 0003:000148c4       sfGlobalMdlStartCallCounts 00000001800478c4     real_time_test_sfun_registry.obj
 0003:000148c8       $SG27740                   00000001800478c8     real_time_test_sfun_registry.obj
 0003:000148d0       GS_ExceptionRecord         00000001800478d0     MSVCRT:gs_report.obj
 0003:00014970       GS_ContextRecord           0000000180047970     MSVCRT:gs_report.obj
 0003:00014e40       ?__proc_attached@@3HA      0000000180047e40     MSVCRT:dll_dllmain.obj
 0003:00014e80       ?is_initialized_as_dll@@3_NA 0000000180047e80     MSVCRT:utility.obj
 0003:00014e81       ?module_local_atexit_table_initialized@@3_NA 0000000180047e81     MSVCRT:utility.obj
 0003:00014e88       ?module_local_atexit_table@@3U_onexit_table_t@@A 0000000180047e88     MSVCRT:utility.obj
 0003:00014ea0       ?module_local_at_quick_exit_table@@3U_onexit_table_t@@A 0000000180047ea0     MSVCRT:utility.obj
